
TheUltimateBattleStarshipSimulator3000.elf:     file format elf32-avr

Sections:
Idx Name          Size      VMA       LMA       File off  Algn
  0 .data         00000030  00800100  00002684  00002718  2**0
                  CONTENTS, ALLOC, LOAD, DATA
  1 .text         00002684  00000000  00000000  00000094  2**1
                  CONTENTS, ALLOC, LOAD, READONLY, CODE
  2 .bss          000004e5  00800130  00800130  00002748  2**0
                  ALLOC
  3 .comment      00000030  00000000  00000000  00002748  2**0
                  CONTENTS, READONLY
  4 .note.gnu.avr.deviceinfo 00000040  00000000  00000000  00002778  2**2
                  CONTENTS, READONLY
  5 .debug_aranges 00000258  00000000  00000000  000027b8  2**0
                  CONTENTS, READONLY, DEBUGGING
  6 .debug_info   000059e1  00000000  00000000  00002a10  2**0
                  CONTENTS, READONLY, DEBUGGING
  7 .debug_abbrev 00001d1c  00000000  00000000  000083f1  2**0
                  CONTENTS, READONLY, DEBUGGING
  8 .debug_line   0000237f  00000000  00000000  0000a10d  2**0
                  CONTENTS, READONLY, DEBUGGING
  9 .debug_frame  000005bc  00000000  00000000  0000c48c  2**2
                  CONTENTS, READONLY, DEBUGGING
 10 .debug_str    000013d8  00000000  00000000  0000ca48  2**0
                  CONTENTS, READONLY, DEBUGGING
 11 .debug_loc    0000244b  00000000  00000000  0000de20  2**0
                  CONTENTS, READONLY, DEBUGGING
 12 .debug_ranges 000001d8  00000000  00000000  0001026b  2**0
                  CONTENTS, READONLY, DEBUGGING

Disassembly of section .text:

00000000 <__vectors>:
       0:	0c 94 33 01 	jmp	0x266	; 0x266 <__ctors_end>
       4:	0c 94 5b 01 	jmp	0x2b6	; 0x2b6 <__bad_interrupt>
       8:	0c 94 5b 01 	jmp	0x2b6	; 0x2b6 <__bad_interrupt>
       c:	0c 94 5b 01 	jmp	0x2b6	; 0x2b6 <__bad_interrupt>
      10:	0c 94 5b 01 	jmp	0x2b6	; 0x2b6 <__bad_interrupt>
      14:	0c 94 5b 01 	jmp	0x2b6	; 0x2b6 <__bad_interrupt>
      18:	0c 94 5b 01 	jmp	0x2b6	; 0x2b6 <__bad_interrupt>
      1c:	0c 94 5b 01 	jmp	0x2b6	; 0x2b6 <__bad_interrupt>
      20:	0c 94 5b 01 	jmp	0x2b6	; 0x2b6 <__bad_interrupt>
      24:	0c 94 5b 01 	jmp	0x2b6	; 0x2b6 <__bad_interrupt>
      28:	0c 94 5b 01 	jmp	0x2b6	; 0x2b6 <__bad_interrupt>
      2c:	0c 94 5b 01 	jmp	0x2b6	; 0x2b6 <__bad_interrupt>
      30:	0c 94 5b 01 	jmp	0x2b6	; 0x2b6 <__bad_interrupt>
      34:	0c 94 5b 01 	jmp	0x2b6	; 0x2b6 <__bad_interrupt>
      38:	0c 94 85 06 	jmp	0xd0a	; 0xd0a <__vector_14>
      3c:	0c 94 5b 01 	jmp	0x2b6	; 0x2b6 <__bad_interrupt>
      40:	0c 94 5b 01 	jmp	0x2b6	; 0x2b6 <__bad_interrupt>
      44:	0c 94 5b 01 	jmp	0x2b6	; 0x2b6 <__bad_interrupt>
      48:	0c 94 20 08 	jmp	0x1040	; 0x1040 <__vector_18>
      4c:	0c 94 47 08 	jmp	0x108e	; 0x108e <__vector_19>
      50:	0c 94 5b 01 	jmp	0x2b6	; 0x2b6 <__bad_interrupt>
      54:	0c 94 5b 01 	jmp	0x2b6	; 0x2b6 <__bad_interrupt>
      58:	0c 94 5b 01 	jmp	0x2b6	; 0x2b6 <__bad_interrupt>
      5c:	0c 94 5b 01 	jmp	0x2b6	; 0x2b6 <__bad_interrupt>
      60:	0c 94 5b 01 	jmp	0x2b6	; 0x2b6 <__bad_interrupt>
      64:	0c 94 5b 01 	jmp	0x2b6	; 0x2b6 <__bad_interrupt>

00000068 <__trampolines_end>:
      68:	80 01       	movw	r16, r0
      6a:	80 01       	movw	r16, r0
      6c:	c0 03       	fmuls	r20, r16
      6e:	c0 03       	fmuls	r20, r16
      70:	e8 17       	cp	r30, r24
      72:	e8 17       	cp	r30, r24
      74:	ec 37       	cpi	r30, 0x7C	; 124
      76:	7c 3e       	cpi	r23, 0xEC	; 236
      78:	7e 7e       	andi	r23, 0xEE	; 238
      7a:	f6 6f       	ori	r31, 0xF6	; 246
      7c:	f7 ef       	ldi	r31, 0xF7	; 247
      7e:	de 7b       	andi	r29, 0xBE	; 190
      80:	cc 33       	cpi	r28, 0x3C	; 60
      82:	c0 03       	fmuls	r20, r16
      84:	80 01       	movw	r16, r0
	...

00000088 <_ZL7font5x7>:
      88:	00 00 00 00 00 00 00 2f 00 00 00 07 00 07 00 14     ......./........
      98:	7f 14 7f 14 24 2a 7f 2a 12 23 13 08 64 62 36 49     ....$*.*.#..db6I
      a8:	55 22 50 00 05 03 00 00 00 1c 22 41 00 00 41 22     U"P......."A..A"
      b8:	1c 00 14 08 3e 08 14 08 08 3e 08 08 00 50 30 00     ....>....>...P0.
      c8:	00 08 08 08 08 08 00 60 60 00 00 20 10 08 04 02     .......``.. ....
      d8:	3e 51 49 45 3e 00 42 7f 40 00 42 61 51 49 46 21     >QIE>.B.@.BaQIF!
      e8:	41 45 4b 31 18 14 12 7f 10 27 45 45 45 39 3c 4a     AEK1.....'EEE9<J
      f8:	49 49 30 01 71 09 05 03 36 49 49 49 36 06 49 49     II0.q...6III6.II
     108:	29 1e 00 36 36 00 00 00 56 36 00 00 08 14 22 41     )..66...V6...."A
     118:	00 14 14 14 14 14 00 41 22 14 08 02 01 51 09 06     .......A"....Q..
     128:	32 49 79 41 3e 7e 11 11 11 7e 7f 49 49 49 36 3e     2IyA>~...~.III6>
     138:	41 41 41 22 7f 41 41 22 1c 7f 49 49 49 41 7f 09     AAA".AA"..IIIA..
     148:	09 09 01 3e 41 49 49 7a 7f 08 08 08 7f 00 41 7f     ...>AIIz......A.
     158:	41 00 20 40 41 3f 01 7f 08 14 22 41 7f 40 40 40     A. @A?...."A.@@@
     168:	40 7f 02 0c 02 7f 7f 04 08 10 7f 3e 41 41 41 3e     @..........>AAA>
     178:	7f 09 09 09 06 3e 41 51 21 5e 7f 09 19 29 46 46     .....>AQ!^...)FF
     188:	49 49 49 31 01 01 7f 01 01 3f 40 40 40 3f 1f 20     III1.....?@@@?. 
     198:	40 20 1f 3f 40 38 40 3f 63 14 08 14 63 07 08 70     @ .?@8@?c...c..p
     1a8:	08 07 61 51 49 45 43 00 7f 41 41 00 02 04 08 10     ..aQIEC..AA.....
     1b8:	20 00 41 41 7f 00 04 02 01 02 04 40 40 40 40 40      .AA.......@@@@@
     1c8:	00 01 02 04 00 20 54 54 54 78 7f 48 44 44 38 38     ..... TTTx.HDD88
     1d8:	44 44 44 20 38 44 44 48 7f 38 54 54 54 18 08 7e     DDD 8DDH.8TTT..~
     1e8:	09 01 02 0c 52 52 52 3e 7f 08 04 04 78 00 44 7d     ....RRR>....x.D}
     1f8:	40 00 20 40 44 3d 00 7f 10 28 44 00 00 41 7f 40     @. @D=...(D..A.@
     208:	00 7c 04 18 04 78 7c 08 04 04 78 38 44 44 44 38     .|...x|...x8DDD8
     218:	7c 14 14 14 08 08 14 14 18 7c 7c 08 04 04 08 48     |........||....H
     228:	54 54 54 20 04 3f 44 40 20 3c 40 40 20 7c 1c 20     TTT .?D@ <@@ |. 
     238:	40 20 1c 3c 40 30 40 3c 44 28 10 28 44 0c 50 50     @ .<@0@<D(.(D.PP
     248:	50 3c 44 64 54 4c 44 00 08 36 41 00 00 00 7f 00     P<DdTLD..6A.....
     258:	00 00 41 36 08 00 10 08 08 10 08 00                 ..A6........

00000264 <__ctors_start>:
     264:	ae 11       	cpse	r26, r14

00000266 <__ctors_end>:
     266:	11 24       	eor	r1, r1
     268:	1f be       	out	0x3f, r1	; 63
     26a:	cf ef       	ldi	r28, 0xFF	; 255
     26c:	d8 e0       	ldi	r29, 0x08	; 8
     26e:	de bf       	out	0x3e, r29	; 62
     270:	cd bf       	out	0x3d, r28	; 61

00000272 <__do_copy_data>:
     272:	11 e0       	ldi	r17, 0x01	; 1
     274:	a0 e0       	ldi	r26, 0x00	; 0
     276:	b1 e0       	ldi	r27, 0x01	; 1
     278:	e4 e8       	ldi	r30, 0x84	; 132
     27a:	f6 e2       	ldi	r31, 0x26	; 38
     27c:	02 c0       	rjmp	.+4      	; 0x282 <__do_copy_data+0x10>
     27e:	05 90       	lpm	r0, Z+
     280:	0d 92       	st	X+, r0
     282:	a0 33       	cpi	r26, 0x30	; 48
     284:	b1 07       	cpc	r27, r17
     286:	d9 f7       	brne	.-10     	; 0x27e <__do_copy_data+0xc>

00000288 <__do_clear_bss>:
     288:	26 e0       	ldi	r18, 0x06	; 6
     28a:	a0 e3       	ldi	r26, 0x30	; 48
     28c:	b1 e0       	ldi	r27, 0x01	; 1
     28e:	01 c0       	rjmp	.+2      	; 0x292 <.do_clear_bss_start>

00000290 <.do_clear_bss_loop>:
     290:	1d 92       	st	X+, r1

00000292 <.do_clear_bss_start>:
     292:	a5 31       	cpi	r26, 0x15	; 21
     294:	b2 07       	cpc	r27, r18
     296:	e1 f7       	brne	.-8      	; 0x290 <.do_clear_bss_loop>

00000298 <__do_global_ctors>:
     298:	11 e0       	ldi	r17, 0x01	; 1
     29a:	c3 e3       	ldi	r28, 0x33	; 51
     29c:	d1 e0       	ldi	r29, 0x01	; 1
     29e:	04 c0       	rjmp	.+8      	; 0x2a8 <__do_global_ctors+0x10>
     2a0:	21 97       	sbiw	r28, 0x01	; 1
     2a2:	fe 01       	movw	r30, r28
     2a4:	0e 94 3a 13 	call	0x2674	; 0x2674 <__tablejump2__>
     2a8:	c2 33       	cpi	r28, 0x32	; 50
     2aa:	d1 07       	cpc	r29, r17
     2ac:	c9 f7       	brne	.-14     	; 0x2a0 <__do_global_ctors+0x8>
     2ae:	0e 94 70 08 	call	0x10e0	; 0x10e0 <main>
     2b2:	0c 94 40 13 	jmp	0x2680	; 0x2680 <_exit>

000002b6 <__bad_interrupt>:
     2b6:	0c 94 00 00 	jmp	0	; 0x0 <__vectors>

000002ba <_Z13gameplay_initv>:
static SoftwareTimer* projectileTimer = nullptr;
static SoftwareTimer* fireCooldownTimer = nullptr;
static bool isRapidFireActive = false; // ZatГӯm false, pozdДӣji se bude mДӣnit po sebrГЎnГӯ power-upu

void gameplay_init(void) {
    btnTimer = SoftwareTimerPool::acquireTimer();
     2ba:	0e 94 bf 11 	call	0x237e	; 0x237e <_ZN17SoftwareTimerPool12acquireTimerEv>
     2be:	90 93 35 01 	sts	0x0135, r25	; 0x800135 <_ZL8btnTimer+0x1>
     2c2:	80 93 34 01 	sts	0x0134, r24	; 0x800134 <_ZL8btnTimer>
    projectileTimer = SoftwareTimerPool::acquireTimer();
     2c6:	0e 94 bf 11 	call	0x237e	; 0x237e <_ZN17SoftwareTimerPool12acquireTimerEv>
     2ca:	90 93 33 01 	sts	0x0133, r25	; 0x800133 <_ZL15projectileTimer+0x1>
     2ce:	80 93 32 01 	sts	0x0132, r24	; 0x800132 <_ZL15projectileTimer>
	burstTimer = SoftwareTimerPool::acquireTimer();
     2d2:	0e 94 bf 11 	call	0x237e	; 0x237e <_ZN17SoftwareTimerPool12acquireTimerEv>
     2d6:	90 93 a9 01 	sts	0x01A9, r25	; 0x8001a9 <burstTimer+0x1>
     2da:	80 93 a8 01 	sts	0x01A8, r24	; 0x8001a8 <burstTimer>
	burstTimer->startTimerUs(100);
     2de:	44 e6       	ldi	r20, 0x64	; 100
     2e0:	50 e0       	ldi	r21, 0x00	; 0
     2e2:	60 e0       	ldi	r22, 0x00	; 0
     2e4:	70 e0       	ldi	r23, 0x00	; 0
     2e6:	0e 94 31 12 	call	0x2462	; 0x2462 <_ZN13SoftwareTimer12startTimerUsEm>
	fireCooldownTimer = SoftwareTimerPool::acquireTimer();
     2ea:	0e 94 bf 11 	call	0x237e	; 0x237e <_ZN17SoftwareTimerPool12acquireTimerEv>
     2ee:	90 93 31 01 	sts	0x0131, r25	; 0x800131 <__data_end+0x1>
     2f2:	80 93 30 01 	sts	0x0130, r24	; 0x800130 <__data_end>
	fireCooldownTimer->startTimerUs(0);
     2f6:	40 e0       	ldi	r20, 0x00	; 0
     2f8:	50 e0       	ldi	r21, 0x00	; 0
     2fa:	ba 01       	movw	r22, r20
     2fc:	0e 94 31 12 	call	0x2462	; 0x2462 <_ZN13SoftwareTimer12startTimerUsEm>
    
    last_A = (PIND & (1 << PD2)) >> PD2;
     300:	89 b1       	in	r24, 0x09	; 9
     302:	84 70       	andi	r24, 0x04	; 4
     304:	90 e0       	ldi	r25, 0x00	; 0
     306:	95 95       	asr	r25
     308:	87 95       	ror	r24
     30a:	95 95       	asr	r25
     30c:	87 95       	ror	r24
     30e:	80 93 37 01 	sts	0x0137, r24	; 0x800137 <_ZL6last_A>
    x = DISPLAY_WIDTH/2; // Reset pozice
     312:	80 e4       	ldi	r24, 0x40	; 64
     314:	80 93 01 01 	sts	0x0101, r24	; 0x800101 <_ZL1x>
    
    for (int i = 0; i < MAX_LASERS; i++) {
     318:	20 e0       	ldi	r18, 0x00	; 0
     31a:	30 e0       	ldi	r19, 0x00	; 0
     31c:	27 30       	cpi	r18, 0x07	; 7
     31e:	31 05       	cpc	r19, r1
     320:	94 f4       	brge	.+36     	; 0x346 <_Z13gameplay_initv+0x8c>
        player_lasers[i].active = false;
     322:	c9 01       	movw	r24, r18
     324:	88 0f       	add	r24, r24
     326:	99 1f       	adc	r25, r25
     328:	88 0f       	add	r24, r24
     32a:	99 1f       	adc	r25, r25
     32c:	88 0f       	add	r24, r24
     32e:	99 1f       	adc	r25, r25
     330:	fc 01       	movw	r30, r24
     332:	e0 59       	subi	r30, 0x90	; 144
     334:	fe 4f       	sbci	r31, 0xFE	; 254
     336:	10 82       	st	Z, r1
        enemy_lasers[i].active = false;
     338:	fc 01       	movw	r30, r24
     33a:	e8 5c       	subi	r30, 0xC8	; 200
     33c:	fe 4f       	sbci	r31, 0xFE	; 254
     33e:	10 82       	st	Z, r1
	fireCooldownTimer->startTimerUs(0);
    
    last_A = (PIND & (1 << PD2)) >> PD2;
    x = DISPLAY_WIDTH/2; // Reset pozice
    
    for (int i = 0; i < MAX_LASERS; i++) {
     340:	2f 5f       	subi	r18, 0xFF	; 255
     342:	3f 4f       	sbci	r19, 0xFF	; 255
     344:	eb cf       	rjmp	.-42     	; 0x31c <_Z13gameplay_initv+0x62>
        player_lasers[i].active = false;
        enemy_lasers[i].active = false;
    }
    
    st7735_fill_screen(0xFFFF);
     346:	8f ef       	ldi	r24, 0xFF	; 255
     348:	9f ef       	ldi	r25, 0xFF	; 255
     34a:	0e 94 2a 07 	call	0xe54	; 0xe54 <st7735_fill_screen>
    draw_ship(x, SHIP_Y, 0x001F);
     34e:	80 91 01 01 	lds	r24, 0x0101	; 0x800101 <_ZL1x>
     352:	4f e1       	ldi	r20, 0x1F	; 31
     354:	50 e0       	ldi	r21, 0x00	; 0
     356:	6c e7       	ldi	r22, 0x7C	; 124
     358:	70 e0       	ldi	r23, 0x00	; 0
     35a:	90 e0       	ldi	r25, 0x00	; 0
     35c:	0e 94 ad 05 	call	0xb5a	; 0xb5a <_Z9draw_shipiij>
     360:	08 95       	ret

00000362 <_Z18process_projectileR10Projectileb>:
}

// Funkce pЕҷijme referenci na JAKOUKOLIV stЕҷelu a informaci, ДҚГӯ ta stЕҷela je
void process_projectile(Projectile& p, bool is_enemy) {
     362:	af 92       	push	r10
     364:	bf 92       	push	r11
     366:	cf 92       	push	r12
     368:	df 92       	push	r13
     36a:	ef 92       	push	r14
     36c:	ff 92       	push	r15
     36e:	0f 93       	push	r16
     370:	1f 93       	push	r17
     372:	cf 93       	push	r28
     374:	df 93       	push	r29
     376:	ec 01       	movw	r28, r24
     378:	f6 2e       	mov	r15, r22
	
	// ZjistГӯme smДӣr a hranici zГЎniku podle toho, kdo stЕҷГӯlГӯ
	int direction = is_enemy ? 1 : -1;       // NepЕҷГӯtel pЕҷiДҚГӯtГЎ Y (+1), hrГЎДҚ odeДҚГӯtГЎ (-1)
     37a:	66 23       	and	r22, r22
     37c:	19 f0       	breq	.+6      	; 0x384 <_Z18process_projectileR10Projectileb+0x22>
     37e:	ee 24       	eor	r14, r14
     380:	e3 94       	inc	r14
     382:	02 c0       	rjmp	.+4      	; 0x388 <_Z18process_projectileR10Projectileb+0x26>
     384:	ee 24       	eor	r14, r14
     386:	ea 94       	dec	r14
	int edge_limit = is_enemy ? SHIP_Y : 16; // Kam aЕҫ mЕҜЕҫe letДӣt
     388:	ff 20       	and	r15, r15
     38a:	31 f0       	breq	.+12     	; 0x398 <_Z18process_projectileR10Projectileb+0x36>
     38c:	0f 2e       	mov	r0, r31
     38e:	fc e7       	ldi	r31, 0x7C	; 124
     390:	cf 2e       	mov	r12, r31
     392:	d1 2c       	mov	r13, r1
     394:	f0 2d       	mov	r31, r0
     396:	04 c0       	rjmp	.+8      	; 0x3a0 <_Z18process_projectileR10Projectileb+0x3e>
     398:	68 94       	set
     39a:	cc 24       	eor	r12, r12
     39c:	c4 f8       	bld	r12, 4
     39e:	d1 2c       	mov	r13, r1
	
	// --- 1. RAILGUN & BURST ---
	if (p.type == WEP_RAILGUN || p.type == WEP_BURST) {
     3a0:	8b 81       	ldd	r24, Y+3	; 0x03
     3a2:	82 30       	cpi	r24, 0x02	; 2
     3a4:	08 f0       	brcs	.+2      	; 0x3a8 <_Z18process_projectileR10Projectileb+0x46>
     3a6:	63 c0       	rjmp	.+198    	; 0x46e <__EEPROM_REGION_LENGTH__+0x6e>
		
		// ZjiЕЎtДӣnГӯ pozice ocasu stЕҷely
		int tail_offset = is_enemy ? -LASER_LENGTH : LASER_LENGTH;
     3a8:	ff 20       	and	r15, r15
     3aa:	19 f0       	breq	.+6      	; 0x3b2 <_Z18process_projectileR10Projectileb+0x50>
     3ac:	6b ef       	ldi	r22, 0xFB	; 251
     3ae:	7f ef       	ldi	r23, 0xFF	; 255
     3b0:	02 c0       	rjmp	.+4      	; 0x3b6 <_Z18process_projectileR10Projectileb+0x54>
     3b2:	65 e0       	ldi	r22, 0x05	; 5
     3b4:	70 e0       	ldi	r23, 0x00	; 0
		int tail_y = p.y + tail_offset;
     3b6:	8a 81       	ldd	r24, Y+2	; 0x02
     3b8:	68 0f       	add	r22, r24
     3ba:	71 1d       	adc	r23, r1
		
		// SmaЕҫeme ocas stЕҷely, pokud je jeЕЎtДӣ na obrazovce
		bool tail_on_screen = is_enemy ? (tail_y > 16) : (tail_y < SHIP_Y);
     3bc:	ff 20       	and	r15, r15
     3be:	31 f0       	breq	.+12     	; 0x3cc <_Z18process_projectileR10Projectileb+0x6a>
     3c0:	81 e0       	ldi	r24, 0x01	; 1
     3c2:	61 31       	cpi	r22, 0x11	; 17
     3c4:	71 05       	cpc	r23, r1
     3c6:	3c f4       	brge	.+14     	; 0x3d6 <_Z18process_projectileR10Projectileb+0x74>
     3c8:	80 e0       	ldi	r24, 0x00	; 0
     3ca:	05 c0       	rjmp	.+10     	; 0x3d6 <_Z18process_projectileR10Projectileb+0x74>
     3cc:	81 e0       	ldi	r24, 0x01	; 1
     3ce:	6c 37       	cpi	r22, 0x7C	; 124
     3d0:	71 05       	cpc	r23, r1
     3d2:	0c f0       	brlt	.+2      	; 0x3d6 <_Z18process_projectileR10Projectileb+0x74>
     3d4:	80 e0       	ldi	r24, 0x00	; 0
		if (tail_on_screen) {
     3d6:	88 23       	and	r24, r24
     3d8:	29 f0       	breq	.+10     	; 0x3e4 <_Z18process_projectileR10Projectileb+0x82>
			st7735_draw_pixel(p.x, tail_y, 0xFFFF);
     3da:	4f ef       	ldi	r20, 0xFF	; 255
     3dc:	5f ef       	ldi	r21, 0xFF	; 255
     3de:	89 81       	ldd	r24, Y+1	; 0x01
     3e0:	0e 94 e3 07 	call	0xfc6	; 0xfc6 <st7735_draw_pixel>
		}
		
		// Barvy podle toho, kdo stЕҷГӯlГӯ (HrГЎДҚ: modrГЎ stopa/svДӣtle modrГЎ ЕЎpiДҚka | NepЕҷГӯtel: ДҚervenГЎ stopa/ЕҫlutГЎ ЕЎpiДҚka) 
		uint16_t trace_color = is_enemy ? 0xF800 : 0x001F;
     3e4:	ff 20       	and	r15, r15
     3e6:	19 f0       	breq	.+6      	; 0x3ee <_Z18process_projectileR10Projectileb+0x8c>
     3e8:	40 e0       	ldi	r20, 0x00	; 0
     3ea:	58 ef       	ldi	r21, 0xF8	; 248
     3ec:	02 c0       	rjmp	.+4      	; 0x3f2 <_Z18process_projectileR10Projectileb+0x90>
     3ee:	4f e1       	ldi	r20, 0x1F	; 31
     3f0:	50 e0       	ldi	r21, 0x00	; 0
		uint16_t tip_color   = is_enemy ? 0xFFE0 : 0x07FF; 
     3f2:	ff 20       	and	r15, r15
     3f4:	19 f0       	breq	.+6      	; 0x3fc <_Z18process_projectileR10Projectileb+0x9a>
     3f6:	00 ee       	ldi	r16, 0xE0	; 224
     3f8:	1f ef       	ldi	r17, 0xFF	; 255
     3fa:	02 c0       	rjmp	.+4      	; 0x400 <__EEPROM_REGION_LENGTH__>
     3fc:	0f ef       	ldi	r16, 0xFF	; 255
     3fe:	17 e0       	ldi	r17, 0x07	; 7

		// StarГЎ ЕЎpiДҚka ztmavne
		st7735_draw_pixel(p.x, p.y, trace_color);
     400:	6a 81       	ldd	r22, Y+2	; 0x02
     402:	89 81       	ldd	r24, Y+1	; 0x01
     404:	0e 94 e3 07 	call	0xfc6	; 0xfc6 <st7735_draw_pixel>
		
		// Posun
		p.y += direction;
     408:	6a 81       	ldd	r22, Y+2	; 0x02
     40a:	6e 0d       	add	r22, r14
     40c:	6a 83       	std	Y+2, r22	; 0x02
		
		// NovГЎ zГЎЕҷivГЎ ЕЎpiДҚka
		st7735_draw_pixel(p.x, p.y, tip_color);
     40e:	a8 01       	movw	r20, r16
     410:	89 81       	ldd	r24, Y+1	; 0x01
     412:	0e 94 e3 07 	call	0xfc6	; 0xfc6 <st7735_draw_pixel>

		// Kontrola okrajЕҜ
		bool out_of_bounds = is_enemy ? (p.y >= edge_limit) : (p.y <= edge_limit);
     416:	ff 20       	and	r15, r15
     418:	41 f0       	breq	.+16     	; 0x42a <__EEPROM_REGION_LENGTH__+0x2a>
     41a:	2a 81       	ldd	r18, Y+2	; 0x02
     41c:	30 e0       	ldi	r19, 0x00	; 0
     41e:	81 e0       	ldi	r24, 0x01	; 1
     420:	2c 15       	cp	r18, r12
     422:	3d 05       	cpc	r19, r13
     424:	4c f4       	brge	.+18     	; 0x438 <__EEPROM_REGION_LENGTH__+0x38>
     426:	80 e0       	ldi	r24, 0x00	; 0
     428:	07 c0       	rjmp	.+14     	; 0x438 <__EEPROM_REGION_LENGTH__+0x38>
     42a:	2a 81       	ldd	r18, Y+2	; 0x02
     42c:	30 e0       	ldi	r19, 0x00	; 0
     42e:	81 e0       	ldi	r24, 0x01	; 1
     430:	c2 16       	cp	r12, r18
     432:	d3 06       	cpc	r13, r19
     434:	0c f4       	brge	.+2      	; 0x438 <__EEPROM_REGION_LENGTH__+0x38>
     436:	80 e0       	ldi	r24, 0x00	; 0
		if (out_of_bounds) {
     438:	88 23       	and	r24, r24
     43a:	09 f4       	brne	.+2      	; 0x43e <__EEPROM_REGION_LENGTH__+0x3e>
     43c:	aa c0       	rjmp	.+340    	; 0x592 <__EEPROM_REGION_LENGTH__+0x192>
			p.active = false;
     43e:	18 82       	st	Y, r1
			
			// SmazГЎnГӯ celГ©ho laseru z obrazovky
			for(uint8_t j = 0; j <= LASER_LENGTH; j++) {
     440:	10 e0       	ldi	r17, 0x00	; 0
     442:	16 30       	cpi	r17, 0x06	; 6
     444:	08 f0       	brcs	.+2      	; 0x448 <__EEPROM_REGION_LENGTH__+0x48>
     446:	a5 c0       	rjmp	.+330    	; 0x592 <__EEPROM_REGION_LENGTH__+0x192>
				int erase_y = is_enemy ? (p.y - j) : (p.y + j);
     448:	ff 20       	and	r15, r15
     44a:	29 f0       	breq	.+10     	; 0x456 <__EEPROM_REGION_LENGTH__+0x56>
     44c:	6a 81       	ldd	r22, Y+2	; 0x02
     44e:	70 e0       	ldi	r23, 0x00	; 0
     450:	61 1b       	sub	r22, r17
     452:	71 09       	sbc	r23, r1
     454:	05 c0       	rjmp	.+10     	; 0x460 <__EEPROM_REGION_LENGTH__+0x60>
     456:	8a 81       	ldd	r24, Y+2	; 0x02
     458:	61 2f       	mov	r22, r17
     45a:	70 e0       	ldi	r23, 0x00	; 0
     45c:	68 0f       	add	r22, r24
     45e:	71 1d       	adc	r23, r1
				st7735_draw_pixel(p.x, erase_y, 0xFFFF);
     460:	4f ef       	ldi	r20, 0xFF	; 255
     462:	5f ef       	ldi	r21, 0xFF	; 255
     464:	89 81       	ldd	r24, Y+1	; 0x01
     466:	0e 94 e3 07 	call	0xfc6	; 0xfc6 <st7735_draw_pixel>
		bool out_of_bounds = is_enemy ? (p.y >= edge_limit) : (p.y <= edge_limit);
		if (out_of_bounds) {
			p.active = false;
			
			// SmazГЎnГӯ celГ©ho laseru z obrazovky
			for(uint8_t j = 0; j <= LASER_LENGTH; j++) {
     46a:	1f 5f       	subi	r17, 0xFF	; 255
     46c:	ea cf       	rjmp	.-44     	; 0x442 <__EEPROM_REGION_LENGTH__+0x42>
			}
		}
	}
	
	// --- 2. RAKETOMET ---
	else if (p.type == WEP_ROCKET) {
     46e:	82 30       	cpi	r24, 0x02	; 2
     470:	09 f0       	breq	.+2      	; 0x474 <__EEPROM_REGION_LENGTH__+0x74>
     472:	65 c0       	rjmp	.+202    	; 0x53e <__EEPROM_REGION_LENGTH__+0x13e>
		
		// SmazГЎnГӯ stopy po raketДӣ (spodnГӯ/hornГӯ ЕҷГЎdek, kterГҪ po posunu zЕҜstane)
		int erase_y = is_enemy ? (p.y - 1) : (p.y + 8);
     474:	ff 20       	and	r15, r15
     476:	29 f0       	breq	.+10     	; 0x482 <__EEPROM_REGION_LENGTH__+0x82>
     478:	6a 81       	ldd	r22, Y+2	; 0x02
     47a:	70 e0       	ldi	r23, 0x00	; 0
     47c:	61 50       	subi	r22, 0x01	; 1
     47e:	71 09       	sbc	r23, r1
     480:	04 c0       	rjmp	.+8      	; 0x48a <__EEPROM_REGION_LENGTH__+0x8a>
     482:	6a 81       	ldd	r22, Y+2	; 0x02
     484:	70 e0       	ldi	r23, 0x00	; 0
     486:	68 5f       	subi	r22, 0xF8	; 248
     488:	7f 4f       	sbci	r23, 0xFF	; 255
		st7735_fill_rect(p.x, erase_y, 3, 1, 0xFFFF);
     48a:	0f ef       	ldi	r16, 0xFF	; 255
     48c:	1f ef       	ldi	r17, 0xFF	; 255
     48e:	21 e0       	ldi	r18, 0x01	; 1
     490:	43 e0       	ldi	r20, 0x03	; 3
     492:	89 81       	ldd	r24, Y+1	; 0x01
     494:	0e 94 78 07 	call	0xef0	; 0xef0 <st7735_fill_rect>

		// Posun
		p.y += direction;
     498:	6a 81       	ldd	r22, Y+2	; 0x02
     49a:	6e 0d       	add	r22, r14
     49c:	6a 83       	std	Y+2, r22	; 0x02

		// RozliЕЎenГӯ barev a umГӯstДӣnГӯ kЕҷidГ©lek (aby raketa letДӣla ЕЎpiДҚkou dopЕҷedu)
		uint16_t body_color = is_enemy ? 0xF800 : 0x001F; // HrГЎДҚ modrГЎ, nepЕҷГӯtel ДҚervenГЎ 
     49e:	ff 20       	and	r15, r15
     4a0:	19 f0       	breq	.+6      	; 0x4a8 <__EEPROM_REGION_LENGTH__+0xa8>
     4a2:	00 e0       	ldi	r16, 0x00	; 0
     4a4:	18 ef       	ldi	r17, 0xF8	; 248
     4a6:	02 c0       	rjmp	.+4      	; 0x4ac <__EEPROM_REGION_LENGTH__+0xac>
     4a8:	0f e1       	ldi	r16, 0x1F	; 31
     4aa:	10 e0       	ldi	r17, 0x00	; 0
		uint16_t wing_color = is_enemy ? 0x07FF : 0x07E0; // HrГЎДҚ zelenГЎ, nepЕҷГӯtel svДӣtle modrГЎ
     4ac:	ff 20       	and	r15, r15
     4ae:	39 f0       	breq	.+14     	; 0x4be <__EEPROM_REGION_LENGTH__+0xbe>
     4b0:	0f 2e       	mov	r0, r31
     4b2:	aa 24       	eor	r10, r10
     4b4:	aa 94       	dec	r10
     4b6:	f7 e0       	ldi	r31, 0x07	; 7
     4b8:	bf 2e       	mov	r11, r31
     4ba:	f0 2d       	mov	r31, r0
     4bc:	06 c0       	rjmp	.+12     	; 0x4ca <__EEPROM_REGION_LENGTH__+0xca>
     4be:	0f 2e       	mov	r0, r31
     4c0:	f0 ee       	ldi	r31, 0xE0	; 224
     4c2:	af 2e       	mov	r10, r31
     4c4:	f7 e0       	ldi	r31, 0x07	; 7
     4c6:	bf 2e       	mov	r11, r31
     4c8:	f0 2d       	mov	r31, r0
		int wing_y_offset   = is_enemy ? 0 : 4;           // KЕҷidГ©lka vzadu
     4ca:	ff 20       	and	r15, r15
     4cc:	11 f0       	breq	.+4      	; 0x4d2 <__EEPROM_REGION_LENGTH__+0xd2>
     4ce:	e1 2c       	mov	r14, r1
     4d0:	03 c0       	rjmp	.+6      	; 0x4d8 <__EEPROM_REGION_LENGTH__+0xd8>
     4d2:	68 94       	set
     4d4:	ee 24       	eor	r14, r14
     4d6:	e2 f8       	bld	r14, 2

		// VykreslenГӯ rakety na novГ© pozici (x, y, ЕЎГӯЕҷka, vГҪЕЎka)
		st7735_fill_rect(p.x + 1, p.y, 1, 8, body_color);                    // TДӣlo
     4d8:	89 81       	ldd	r24, Y+1	; 0x01
     4da:	28 e0       	ldi	r18, 0x08	; 8
     4dc:	41 e0       	ldi	r20, 0x01	; 1
     4de:	8f 5f       	subi	r24, 0xFF	; 255
     4e0:	0e 94 78 07 	call	0xef0	; 0xef0 <st7735_fill_rect>
		st7735_fill_rect(p.x, p.y + wing_y_offset, 1, 4, wing_color);        // LevГ© kЕҷidГ©lko
     4e4:	6a 81       	ldd	r22, Y+2	; 0x02
     4e6:	6e 0d       	add	r22, r14
     4e8:	85 01       	movw	r16, r10
     4ea:	24 e0       	ldi	r18, 0x04	; 4
     4ec:	41 e0       	ldi	r20, 0x01	; 1
     4ee:	89 81       	ldd	r24, Y+1	; 0x01
     4f0:	0e 94 78 07 	call	0xef0	; 0xef0 <st7735_fill_rect>
		st7735_fill_rect(p.x + 2, p.y + wing_y_offset, 1, 4, wing_color);    // PravГ© kЕҷidГ©lko
     4f4:	6a 81       	ldd	r22, Y+2	; 0x02
     4f6:	6e 0d       	add	r22, r14
     4f8:	89 81       	ldd	r24, Y+1	; 0x01
     4fa:	24 e0       	ldi	r18, 0x04	; 4
     4fc:	41 e0       	ldi	r20, 0x01	; 1
     4fe:	8e 5f       	subi	r24, 0xFE	; 254
     500:	0e 94 78 07 	call	0xef0	; 0xef0 <st7735_fill_rect>

		// Kontrola okrajЕҜ
		bool out_of_bounds = is_enemy ? (p.y >= edge_limit) : (p.y <= edge_limit);
     504:	ff 20       	and	r15, r15
     506:	41 f0       	breq	.+16     	; 0x518 <__EEPROM_REGION_LENGTH__+0x118>
     508:	2a 81       	ldd	r18, Y+2	; 0x02
     50a:	30 e0       	ldi	r19, 0x00	; 0
     50c:	81 e0       	ldi	r24, 0x01	; 1
     50e:	2c 15       	cp	r18, r12
     510:	3d 05       	cpc	r19, r13
     512:	4c f4       	brge	.+18     	; 0x526 <__EEPROM_REGION_LENGTH__+0x126>
     514:	80 e0       	ldi	r24, 0x00	; 0
     516:	07 c0       	rjmp	.+14     	; 0x526 <__EEPROM_REGION_LENGTH__+0x126>
     518:	2a 81       	ldd	r18, Y+2	; 0x02
     51a:	30 e0       	ldi	r19, 0x00	; 0
     51c:	81 e0       	ldi	r24, 0x01	; 1
     51e:	c2 16       	cp	r12, r18
     520:	d3 06       	cpc	r13, r19
     522:	0c f4       	brge	.+2      	; 0x526 <__EEPROM_REGION_LENGTH__+0x126>
     524:	80 e0       	ldi	r24, 0x00	; 0
		if (out_of_bounds) {
     526:	88 23       	and	r24, r24
     528:	a1 f1       	breq	.+104    	; 0x592 <__EEPROM_REGION_LENGTH__+0x192>
			p.active = false;
     52a:	18 82       	st	Y, r1
			// SmazГЎnГӯ celГ© 3x8 rakety
			st7735_fill_rect(p.x, p.y, 3, 9, 0xFFFF);
     52c:	6a 81       	ldd	r22, Y+2	; 0x02
     52e:	0f ef       	ldi	r16, 0xFF	; 255
     530:	1f ef       	ldi	r17, 0xFF	; 255
     532:	29 e0       	ldi	r18, 0x09	; 9
     534:	43 e0       	ldi	r20, 0x03	; 3
     536:	89 81       	ldd	r24, Y+1	; 0x01
     538:	0e 94 78 07 	call	0xef0	; 0xef0 <st7735_fill_rect>
     53c:	2a c0       	rjmp	.+84     	; 0x592 <__EEPROM_REGION_LENGTH__+0x192>
			}
		}
	}
	
	// --- 3. LASER ---
	else if (p.type == WEP_LASER) {
     53e:	83 30       	cpi	r24, 0x03	; 3
     540:	41 f5       	brne	.+80     	; 0x592 <__EEPROM_REGION_LENGTH__+0x192>
		// Paprsek se v ose Y neposouvГЎ, jen trvГЎ 3 sekundy
		if (micros() - p.spawn_time > 3000000UL) {
     542:	0e 94 74 06 	call	0xce8	; 0xce8 <micros>
     546:	0c 81       	ldd	r16, Y+4	; 0x04
     548:	1d 81       	ldd	r17, Y+5	; 0x05
     54a:	2e 81       	ldd	r18, Y+6	; 0x06
     54c:	3f 81       	ldd	r19, Y+7	; 0x07
     54e:	dc 01       	movw	r26, r24
     550:	cb 01       	movw	r24, r22
     552:	80 1b       	sub	r24, r16
     554:	91 0b       	sbc	r25, r17
     556:	a2 0b       	sbc	r26, r18
     558:	b3 0b       	sbc	r27, r19
     55a:	81 3c       	cpi	r24, 0xC1	; 193
     55c:	96 4c       	sbci	r25, 0xC6	; 198
     55e:	ad 42       	sbci	r26, 0x2D	; 45
     560:	b1 05       	cpc	r27, r1
     562:	50 f0       	brcs	.+20     	; 0x578 <__EEPROM_REGION_LENGTH__+0x178>
			p.active = false;
     564:	18 82       	st	Y, r1
			// VyprЕЎel ДҚas -> smaЕҫeme paprsek. VЕҫdy je od y=16 aЕҫ k lodi (SHIP_Y).
			st7735_fill_rect(p.x, 16, 2, SHIP_Y - 16, 0xFFFF);
     566:	0f ef       	ldi	r16, 0xFF	; 255
     568:	1f ef       	ldi	r17, 0xFF	; 255
     56a:	2c e6       	ldi	r18, 0x6C	; 108
     56c:	42 e0       	ldi	r20, 0x02	; 2
     56e:	60 e1       	ldi	r22, 0x10	; 16
     570:	89 81       	ldd	r24, Y+1	; 0x01
     572:	0e 94 78 07 	call	0xef0	; 0xef0 <st7735_fill_rect>
     576:	0d c0       	rjmp	.+26     	; 0x592 <__EEPROM_REGION_LENGTH__+0x192>
			} else {
			// HrГЎДҚЕҜv paprsek bude modrozelenГҪ, nepЕҷГЎtelskГҪ tЕҷeba ДҚistДӣ ДҚervenГҪ
			uint16_t laser_color = is_enemy ? 0xF800 : 0x07FF;
     578:	ff 20       	and	r15, r15
     57a:	19 f0       	breq	.+6      	; 0x582 <__EEPROM_REGION_LENGTH__+0x182>
     57c:	00 e0       	ldi	r16, 0x00	; 0
     57e:	18 ef       	ldi	r17, 0xF8	; 248
     580:	02 c0       	rjmp	.+4      	; 0x586 <__EEPROM_REGION_LENGTH__+0x186>
     582:	0f ef       	ldi	r16, 0xFF	; 255
     584:	17 e0       	ldi	r17, 0x07	; 7
			st7735_fill_rect(p.x, 16, 2, SHIP_Y - 16, laser_color);
     586:	2c e6       	ldi	r18, 0x6C	; 108
     588:	42 e0       	ldi	r20, 0x02	; 2
     58a:	60 e1       	ldi	r22, 0x10	; 16
     58c:	89 81       	ldd	r24, Y+1	; 0x01
     58e:	0e 94 78 07 	call	0xef0	; 0xef0 <st7735_fill_rect>
		}
	}
}
     592:	df 91       	pop	r29
     594:	cf 91       	pop	r28
     596:	1f 91       	pop	r17
     598:	0f 91       	pop	r16
     59a:	ff 90       	pop	r15
     59c:	ef 90       	pop	r14
     59e:	df 90       	pop	r13
     5a0:	cf 90       	pop	r12
     5a2:	bf 90       	pop	r11
     5a4:	af 90       	pop	r10
     5a6:	08 95       	ret

000005a8 <_Z13gameplay_tickv>:

GameState gameplay_tick(void) {
     5a8:	cf 92       	push	r12
     5aa:	df 92       	push	r13
     5ac:	ef 92       	push	r14
     5ae:	ff 92       	push	r15
     5b0:	0f 93       	push	r16
     5b2:	1f 93       	push	r17
     5b4:	cf 93       	push	r28
     5b6:	df 93       	push	r29
	// Detekce stisku pro pЕҷepГӯnГЎnГӯ zbranГӯ (jednoduchГҪ debounce)
	static bool last_pd4_state = true;
	bool current_pd4_state = (PIND & (1 << PD4));
     5b8:	89 b1       	in	r24, 0x09	; 9
     5ba:	91 e0       	ldi	r25, 0x01	; 1
     5bc:	28 2f       	mov	r18, r24
     5be:	20 71       	andi	r18, 0x10	; 16
     5c0:	84 ff       	sbrs	r24, 4
     5c2:	90 e0       	ldi	r25, 0x00	; 0

	if (!current_pd4_state && last_pd4_state) { // Detekce sestupnГ© hrany (stisk)
     5c4:	21 11       	cpse	r18, r1
     5c6:	15 c0       	rjmp	.+42     	; 0x5f2 <_Z13gameplay_tickv+0x4a>
     5c8:	80 91 00 01 	lds	r24, 0x0100	; 0x800100 <__DATA_REGION_ORIGIN__>
     5cc:	88 23       	and	r24, r24
     5ce:	89 f0       	breq	.+34     	; 0x5f2 <_Z13gameplay_tickv+0x4a>
		current_weapon = static_cast<WeaponType>((current_weapon + 1) % 4); 
     5d0:	20 91 ab 01 	lds	r18, 0x01AB	; 0x8001ab <current_weapon>
     5d4:	30 e0       	ldi	r19, 0x00	; 0
     5d6:	2f 5f       	subi	r18, 0xFF	; 255
     5d8:	3f 4f       	sbci	r19, 0xFF	; 255
     5da:	23 70       	andi	r18, 0x03	; 3
     5dc:	30 78       	andi	r19, 0x80	; 128
     5de:	33 23       	and	r19, r19
     5e0:	34 f4       	brge	.+12     	; 0x5ee <_Z13gameplay_tickv+0x46>
     5e2:	21 50       	subi	r18, 0x01	; 1
     5e4:	31 09       	sbc	r19, r1
     5e6:	2c 6f       	ori	r18, 0xFC	; 252
     5e8:	3f 6f       	ori	r19, 0xFF	; 255
     5ea:	2f 5f       	subi	r18, 0xFF	; 255
     5ec:	3f 4f       	sbci	r19, 0xFF	; 255
     5ee:	20 93 ab 01 	sts	0x01AB, r18	; 0x8001ab <current_weapon>
	}
	last_pd4_state = current_pd4_state;
     5f2:	90 93 00 01 	sts	0x0100, r25	; 0x800100 <__DATA_REGION_ORIGIN__>
	
    // --- ДҢTENГҚ TLAДҢГҚTKA (STЕҳELBA) ---
    switch (btn_state) {
     5f6:	80 91 36 01 	lds	r24, 0x0136	; 0x800136 <_ZL9btn_state>
     5fa:	81 30       	cpi	r24, 0x01	; 1
     5fc:	19 f1       	breq	.+70     	; 0x644 <_Z13gameplay_tickv+0x9c>
     5fe:	38 f0       	brcs	.+14     	; 0x60e <_Z13gameplay_tickv+0x66>
     600:	82 30       	cpi	r24, 0x02	; 2
     602:	09 f4       	brne	.+2      	; 0x606 <_Z13gameplay_tickv+0x5e>
     604:	bf c0       	rjmp	.+382    	; 0x784 <_Z13gameplay_tickv+0x1dc>
     606:	83 30       	cpi	r24, 0x03	; 3
     608:	09 f4       	brne	.+2      	; 0x60c <_Z13gameplay_tickv+0x64>
     60a:	cc c0       	rjmp	.+408    	; 0x7a4 <_Z13gameplay_tickv+0x1fc>
     60c:	d4 c0       	rjmp	.+424    	; 0x7b6 <_Z13gameplay_tickv+0x20e>
	    case BTN_IDLE:
	    // PЕҳIDГҒNA KONTROLA COOLDOWNU:
	    if (!(PIND & (1 << PD5)) && fireCooldownTimer->isDone()) {
     60e:	4d 99       	sbic	0x09, 5	; 9
     610:	07 c0       	rjmp	.+14     	; 0x620 <_Z13gameplay_tickv+0x78>
     612:	80 91 30 01 	lds	r24, 0x0130	; 0x800130 <__data_end>
     616:	90 91 31 01 	lds	r25, 0x0131	; 0x800131 <__data_end+0x1>
     61a:	0e 94 37 12 	call	0x246e	; 0x246e <_ZN13SoftwareTimer6isDoneEv>
     61e:	01 c0       	rjmp	.+2      	; 0x622 <_Z13gameplay_tickv+0x7a>
     620:	80 e0       	ldi	r24, 0x00	; 0
     622:	88 23       	and	r24, r24
     624:	09 f4       	brne	.+2      	; 0x628 <_Z13gameplay_tickv+0x80>
     626:	c7 c0       	rjmp	.+398    	; 0x7b6 <_Z13gameplay_tickv+0x20e>
		    btnTimer->startTimerUs(100000);
     628:	40 ea       	ldi	r20, 0xA0	; 160
     62a:	56 e8       	ldi	r21, 0x86	; 134
     62c:	61 e0       	ldi	r22, 0x01	; 1
     62e:	70 e0       	ldi	r23, 0x00	; 0
     630:	80 91 34 01 	lds	r24, 0x0134	; 0x800134 <_ZL8btnTimer>
     634:	90 91 35 01 	lds	r25, 0x0135	; 0x800135 <_ZL8btnTimer+0x1>
     638:	0e 94 31 12 	call	0x2462	; 0x2462 <_ZN13SoftwareTimer12startTimerUsEm>
		    btn_state = BTN_WAIT_DEBOUNCE;
     63c:	81 e0       	ldi	r24, 0x01	; 1
     63e:	80 93 36 01 	sts	0x0136, r24	; 0x800136 <_ZL9btn_state>
     642:	b9 c0       	rjmp	.+370    	; 0x7b6 <_Z13gameplay_tickv+0x20e>
	    }
	    break;

	    case BTN_WAIT_DEBOUNCE:
	    if (btnTimer->isDone()) {
     644:	80 91 34 01 	lds	r24, 0x0134	; 0x800134 <_ZL8btnTimer>
     648:	90 91 35 01 	lds	r25, 0x0135	; 0x800135 <_ZL8btnTimer+0x1>
     64c:	0e 94 37 12 	call	0x246e	; 0x246e <_ZN13SoftwareTimer6isDoneEv>
     650:	88 23       	and	r24, r24
     652:	09 f4       	brne	.+2      	; 0x656 <_Z13gameplay_tickv+0xae>
     654:	b0 c0       	rjmp	.+352    	; 0x7b6 <_Z13gameplay_tickv+0x20e>
		    if (!(PIND & (1 << PD5))) { // Pokud stisknuto tlaДҚГӯtko stЕҷelby
     656:	4d 99       	sbic	0x09, 5	; 9
     658:	92 c0       	rjmp	.+292    	; 0x77e <_Z13gameplay_tickv+0x1d6>
			    
			    // 1. ZpracovГЎnГӯ okamЕҫitГ© stЕҷelby
			    if (current_weapon == WEP_RAILGUN || current_weapon == WEP_ROCKET || current_weapon == WEP_LASER) {
     65a:	30 91 ab 01 	lds	r19, 0x01AB	; 0x8001ab <current_weapon>
     65e:	33 23       	and	r19, r19
     660:	41 f0       	breq	.+16     	; 0x672 <_Z13gameplay_tickv+0xca>
     662:	32 30       	cpi	r19, 0x02	; 2
     664:	49 f0       	breq	.+18     	; 0x678 <_Z13gameplay_tickv+0xd0>
     666:	33 30       	cpi	r19, 0x03	; 3
     668:	09 f0       	breq	.+2      	; 0x66c <_Z13gameplay_tickv+0xc4>
     66a:	63 c0       	rjmp	.+198    	; 0x732 <_Z13gameplay_tickv+0x18a>
     66c:	80 e0       	ldi	r24, 0x00	; 0
     66e:	90 e0       	ldi	r25, 0x00	; 0
     670:	05 c0       	rjmp	.+10     	; 0x67c <_Z13gameplay_tickv+0xd4>
     672:	80 e0       	ldi	r24, 0x00	; 0
     674:	90 e0       	ldi	r25, 0x00	; 0
     676:	02 c0       	rjmp	.+4      	; 0x67c <_Z13gameplay_tickv+0xd4>
     678:	80 e0       	ldi	r24, 0x00	; 0
     67a:	90 e0       	ldi	r25, 0x00	; 0
				    for (int i = 0; i < MAX_LASERS; i++) {
     67c:	87 30       	cpi	r24, 0x07	; 7
     67e:	91 05       	cpc	r25, r1
     680:	0c f0       	brlt	.+2      	; 0x684 <_Z13gameplay_tickv+0xdc>
     682:	65 c0       	rjmp	.+202    	; 0x74e <_Z13gameplay_tickv+0x1a6>
					    if (!player_lasers[i].active) {
     684:	fc 01       	movw	r30, r24
     686:	ee 0f       	add	r30, r30
     688:	ff 1f       	adc	r31, r31
     68a:	ee 0f       	add	r30, r30
     68c:	ff 1f       	adc	r31, r31
     68e:	ee 0f       	add	r30, r30
     690:	ff 1f       	adc	r31, r31
     692:	e0 59       	subi	r30, 0x90	; 144
     694:	fe 4f       	sbci	r31, 0xFE	; 254
     696:	20 81       	ld	r18, Z
     698:	21 11       	cpse	r18, r1
     69a:	49 c0       	rjmp	.+146    	; 0x72e <_Z13gameplay_tickv+0x186>
						    player_lasers[i].active = true;
     69c:	fc 01       	movw	r30, r24
     69e:	ee 0f       	add	r30, r30
     6a0:	ff 1f       	adc	r31, r31
     6a2:	ee 0f       	add	r30, r30
     6a4:	ff 1f       	adc	r31, r31
     6a6:	ee 0f       	add	r30, r30
     6a8:	ff 1f       	adc	r31, r31
     6aa:	e0 59       	subi	r30, 0x90	; 144
     6ac:	fe 4f       	sbci	r31, 0xFE	; 254
     6ae:	21 e0       	ldi	r18, 0x01	; 1
     6b0:	20 83       	st	Z, r18
						    player_lasers[i].x = x + 7; // VycentrovГЎnГӯ
     6b2:	20 91 01 01 	lds	r18, 0x0101	; 0x800101 <_ZL1x>
     6b6:	29 5f       	subi	r18, 0xF9	; 249
     6b8:	21 83       	std	Z+1, r18	; 0x01
						    player_lasers[i].y = (current_weapon == WEP_ROCKET) ? (SHIP_Y - 8) : (SHIP_Y - 1);
     6ba:	32 30       	cpi	r19, 0x02	; 2
     6bc:	11 f4       	brne	.+4      	; 0x6c2 <_Z13gameplay_tickv+0x11a>
     6be:	24 e7       	ldi	r18, 0x74	; 116
     6c0:	01 c0       	rjmp	.+2      	; 0x6c4 <_Z13gameplay_tickv+0x11c>
     6c2:	2b e7       	ldi	r18, 0x7B	; 123
     6c4:	88 0f       	add	r24, r24
     6c6:	99 1f       	adc	r25, r25
     6c8:	88 0f       	add	r24, r24
     6ca:	99 1f       	adc	r25, r25
     6cc:	88 0f       	add	r24, r24
     6ce:	99 1f       	adc	r25, r25
     6d0:	ec 01       	movw	r28, r24
     6d2:	c0 59       	subi	r28, 0x90	; 144
     6d4:	de 4f       	sbci	r29, 0xFE	; 254
     6d6:	2a 83       	std	Y+2, r18	; 0x02
						    player_lasers[i].type = current_weapon;
     6d8:	3b 83       	std	Y+3, r19	; 0x03
						    player_lasers[i].spawn_time = micros(); // ZaznamenГЎme ДҚas vГҪstЕҷelu
     6da:	0e 94 74 06 	call	0xce8	; 0xce8 <micros>
     6de:	6c 83       	std	Y+4, r22	; 0x04
     6e0:	7d 83       	std	Y+5, r23	; 0x05
     6e2:	8e 83       	std	Y+6, r24	; 0x06
     6e4:	9f 83       	std	Y+7, r25	; 0x07
						    
						    // PЕҷehrajeme sprГЎvnГҪ zvuk
						    if (current_weapon == WEP_RAILGUN) Soundboard::playSound(Soundboard::sfx_railgun);
     6e6:	80 91 ab 01 	lds	r24, 0x01AB	; 0x8001ab <current_weapon>
     6ea:	81 11       	cpse	r24, r1
     6ec:	09 c0       	rjmp	.+18     	; 0x700 <_Z13gameplay_tickv+0x158>
    /**
     * @brief Plays a sound.
     * @param s Pointer to the sound to play.
     */
    static void playSound(sounds s){
        currentSound = &(soundList[s]);
     6ee:	24 ec       	ldi	r18, 0xC4	; 196
     6f0:	34 e0       	ldi	r19, 0x04	; 4
     6f2:	30 93 11 06 	sts	0x0611, r19	; 0x800611 <_ZN10Soundboard12currentSoundE+0x1>
     6f6:	20 93 10 06 	sts	0x0610, r18	; 0x800610 <_ZN10Soundboard12currentSoundE>
        isPlaying = true;
     6fa:	91 e0       	ldi	r25, 0x01	; 1
     6fc:	90 93 12 06 	sts	0x0612, r25	; 0x800612 <_ZN10Soundboard9isPlayingE>
						    if (current_weapon == WEP_ROCKET) Soundboard::playSound(Soundboard::sfx_rocket);
     700:	82 30       	cpi	r24, 0x02	; 2
     702:	49 f4       	brne	.+18     	; 0x716 <_Z13gameplay_tickv+0x16e>
    /**
     * @brief Plays a sound.
     * @param s Pointer to the sound to play.
     */
    static void playSound(sounds s){
        currentSound = &(soundList[s]);
     704:	2a e1       	ldi	r18, 0x1A	; 26
     706:	35 e0       	ldi	r19, 0x05	; 5
     708:	30 93 11 06 	sts	0x0611, r19	; 0x800611 <_ZN10Soundboard12currentSoundE+0x1>
     70c:	20 93 10 06 	sts	0x0610, r18	; 0x800610 <_ZN10Soundboard12currentSoundE>
        isPlaying = true;
     710:	91 e0       	ldi	r25, 0x01	; 1
     712:	90 93 12 06 	sts	0x0612, r25	; 0x800612 <_ZN10Soundboard9isPlayingE>
						    if (current_weapon == WEP_LASER) Soundboard::playSound(Soundboard::sfx_laser);
     716:	83 30       	cpi	r24, 0x03	; 3
     718:	d1 f4       	brne	.+52     	; 0x74e <_Z13gameplay_tickv+0x1a6>
    /**
     * @brief Plays a sound.
     * @param s Pointer to the sound to play.
     */
    static void playSound(sounds s){
        currentSound = &(soundList[s]);
     71a:	85 e4       	ldi	r24, 0x45	; 69
     71c:	95 e0       	ldi	r25, 0x05	; 5
     71e:	90 93 11 06 	sts	0x0611, r25	; 0x800611 <_ZN10Soundboard12currentSoundE+0x1>
     722:	80 93 10 06 	sts	0x0610, r24	; 0x800610 <_ZN10Soundboard12currentSoundE>
        isPlaying = true;
     726:	81 e0       	ldi	r24, 0x01	; 1
     728:	80 93 12 06 	sts	0x0612, r24	; 0x800612 <_ZN10Soundboard9isPlayingE>
     72c:	10 c0       	rjmp	.+32     	; 0x74e <_Z13gameplay_tickv+0x1a6>
	    if (btnTimer->isDone()) {
		    if (!(PIND & (1 << PD5))) { // Pokud stisknuto tlaДҚГӯtko stЕҷelby
			    
			    // 1. ZpracovГЎnГӯ okamЕҫitГ© stЕҷelby
			    if (current_weapon == WEP_RAILGUN || current_weapon == WEP_ROCKET || current_weapon == WEP_LASER) {
				    for (int i = 0; i < MAX_LASERS; i++) {
     72e:	01 96       	adiw	r24, 0x01	; 1
     730:	a5 cf       	rjmp	.-182    	; 0x67c <_Z13gameplay_tickv+0xd4>
						    break; // VystЕҷelГӯ jen jeden
					    }
				    }
			    }
			    // 2. ZpracovГЎnГӯ Burst zbranДӣ (jen zahГЎjГӯ dГЎvku)
			    else if (current_weapon == WEP_BURST) {
     732:	31 30       	cpi	r19, 0x01	; 1
     734:	61 f4       	brne	.+24     	; 0x74e <_Z13gameplay_tickv+0x1a6>
				    burst_shots_left = 3; // Chceme vystЕҷelit 3x
     736:	83 e0       	ldi	r24, 0x03	; 3
     738:	80 93 aa 01 	sts	0x01AA, r24	; 0x8001aa <burst_shots_left>
				    burstTimer->startTimerUs(0); // PrvnГӯ vyletГӯ hned
     73c:	40 e0       	ldi	r20, 0x00	; 0
     73e:	50 e0       	ldi	r21, 0x00	; 0
     740:	ba 01       	movw	r22, r20
     742:	80 91 a8 01 	lds	r24, 0x01A8	; 0x8001a8 <burstTimer>
     746:	90 91 a9 01 	lds	r25, 0x01A9	; 0x8001a9 <burstTimer+0x1>
     74a:	0e 94 31 12 	call	0x2462	; 0x2462 <_ZN13SoftwareTimer12startTimerUsEm>
			    }
			    
			    // Timer sdГӯlГӯ vЕЎechny stЕҷely, takЕҫe ho pustГӯme, pokud jeЕЎtДӣ nebДӣЕҫГӯ
			    projectileTimer->startTimerUs(80000);
     74e:	40 e8       	ldi	r20, 0x80	; 128
     750:	58 e3       	ldi	r21, 0x38	; 56
     752:	61 e0       	ldi	r22, 0x01	; 1
     754:	70 e0       	ldi	r23, 0x00	; 0
     756:	80 91 32 01 	lds	r24, 0x0132	; 0x800132 <_ZL15projectileTimer>
     75a:	90 91 33 01 	lds	r25, 0x0133	; 0x800133 <_ZL15projectileTimer+0x1>
     75e:	0e 94 31 12 	call	0x2462	; 0x2462 <_ZN13SoftwareTimer12startTimerUsEm>
			    
			    // NastartovГЎnГӯ cooldownu podle toho, jestli mГЎme Power-up
			    uint32_t current_cd = isRapidFireActive ? COOLDOWN_RAPID : COOLDOWN_NORMAL;
			    fireCooldownTimer->startTimerUs(current_cd);
     762:	40 ec       	ldi	r20, 0xC0	; 192
     764:	57 e2       	ldi	r21, 0x27	; 39
     766:	69 e0       	ldi	r22, 0x09	; 9
     768:	70 e0       	ldi	r23, 0x00	; 0
     76a:	80 91 30 01 	lds	r24, 0x0130	; 0x800130 <__data_end>
     76e:	90 91 31 01 	lds	r25, 0x0131	; 0x800131 <__data_end+0x1>
     772:	0e 94 31 12 	call	0x2462	; 0x2462 <_ZN13SoftwareTimer12startTimerUsEm>
			    
			    btn_state = BTN_WAIT_RELEASE;
     776:	82 e0       	ldi	r24, 0x02	; 2
     778:	80 93 36 01 	sts	0x0136, r24	; 0x800136 <_ZL9btn_state>
     77c:	1c c0       	rjmp	.+56     	; 0x7b6 <_Z13gameplay_tickv+0x20e>
			    } else {
			    btn_state = BTN_IDLE; // FaleЕЎnГҪ stisk (tlaДҚГӯtko bylo puЕЎtДӣno moc brzo)
     77e:	10 92 36 01 	sts	0x0136, r1	; 0x800136 <_ZL9btn_state>
     782:	19 c0       	rjmp	.+50     	; 0x7b6 <_Z13gameplay_tickv+0x20e>
		    }
	    }
	    break;

	    case BTN_WAIT_RELEASE:
	    if (PIND & (1 << PD5)) {
     784:	4d 9b       	sbis	0x09, 5	; 9
     786:	17 c0       	rjmp	.+46     	; 0x7b6 <_Z13gameplay_tickv+0x20e>
		    btnTimer->startTimerUs(50000);
     788:	40 e5       	ldi	r20, 0x50	; 80
     78a:	53 ec       	ldi	r21, 0xC3	; 195
     78c:	60 e0       	ldi	r22, 0x00	; 0
     78e:	70 e0       	ldi	r23, 0x00	; 0
     790:	80 91 34 01 	lds	r24, 0x0134	; 0x800134 <_ZL8btnTimer>
     794:	90 91 35 01 	lds	r25, 0x0135	; 0x800135 <_ZL8btnTimer+0x1>
     798:	0e 94 31 12 	call	0x2462	; 0x2462 <_ZN13SoftwareTimer12startTimerUsEm>
		    btn_state = BTN_RELEASE_DEBOUNCE;
     79c:	83 e0       	ldi	r24, 0x03	; 3
     79e:	80 93 36 01 	sts	0x0136, r24	; 0x800136 <_ZL9btn_state>
     7a2:	09 c0       	rjmp	.+18     	; 0x7b6 <_Z13gameplay_tickv+0x20e>
	    }
	    break;

	    case BTN_RELEASE_DEBOUNCE:
	    if (btnTimer->isDone()) {
     7a4:	80 91 34 01 	lds	r24, 0x0134	; 0x800134 <_ZL8btnTimer>
     7a8:	90 91 35 01 	lds	r25, 0x0135	; 0x800135 <_ZL8btnTimer+0x1>
     7ac:	0e 94 37 12 	call	0x246e	; 0x246e <_ZN13SoftwareTimer6isDoneEv>
     7b0:	81 11       	cpse	r24, r1
		    btn_state = BTN_IDLE;
     7b2:	10 92 36 01 	sts	0x0136, r1	; 0x800136 <_ZL9btn_state>
	    }
	    break;
    } // <-- ZDE KONДҢГҚ SWITCH TLAДҢГҚTKA

    // --- LOGIKA PRO DOKONДҢENГҚ BURST DГҒVKY (NynГӯ bДӣЕҫГӯ volnДӣ v gameplay_tick) ---
    if (burst_shots_left > 0 && burstTimer->isDone()) {
     7b6:	80 91 aa 01 	lds	r24, 0x01AA	; 0x8001aa <burst_shots_left>
     7ba:	88 23       	and	r24, r24
     7bc:	39 f0       	breq	.+14     	; 0x7cc <_Z13gameplay_tickv+0x224>
     7be:	80 91 a8 01 	lds	r24, 0x01A8	; 0x8001a8 <burstTimer>
     7c2:	90 91 a9 01 	lds	r25, 0x01A9	; 0x8001a9 <burstTimer+0x1>
     7c6:	0e 94 37 12 	call	0x246e	; 0x246e <_ZN13SoftwareTimer6isDoneEv>
     7ca:	01 c0       	rjmp	.+2      	; 0x7ce <_Z13gameplay_tickv+0x226>
     7cc:	80 e0       	ldi	r24, 0x00	; 0
     7ce:	88 23       	and	r24, r24
     7d0:	09 f4       	brne	.+2      	; 0x7d4 <_Z13gameplay_tickv+0x22c>
     7d2:	4f c0       	rjmp	.+158    	; 0x872 <__DATA_REGION_LENGTH__+0x72>
     7d4:	80 e0       	ldi	r24, 0x00	; 0
     7d6:	90 e0       	ldi	r25, 0x00	; 0
	    for (int i = 0; i < MAX_LASERS; i++) {
     7d8:	87 30       	cpi	r24, 0x07	; 7
     7da:	91 05       	cpc	r25, r1
     7dc:	cc f5       	brge	.+114    	; 0x850 <__DATA_REGION_LENGTH__+0x50>
		    if (!player_lasers[i].active) {
     7de:	fc 01       	movw	r30, r24
     7e0:	ee 0f       	add	r30, r30
     7e2:	ff 1f       	adc	r31, r31
     7e4:	ee 0f       	add	r30, r30
     7e6:	ff 1f       	adc	r31, r31
     7e8:	ee 0f       	add	r30, r30
     7ea:	ff 1f       	adc	r31, r31
     7ec:	e0 59       	subi	r30, 0x90	; 144
     7ee:	fe 4f       	sbci	r31, 0xFE	; 254
     7f0:	20 81       	ld	r18, Z
     7f2:	21 11       	cpse	r18, r1
     7f4:	2b c0       	rjmp	.+86     	; 0x84c <__DATA_REGION_LENGTH__+0x4c>
			    player_lasers[i].active = true;
     7f6:	fc 01       	movw	r30, r24
     7f8:	ee 0f       	add	r30, r30
     7fa:	ff 1f       	adc	r31, r31
     7fc:	ee 0f       	add	r30, r30
     7fe:	ff 1f       	adc	r31, r31
     800:	ee 0f       	add	r30, r30
     802:	ff 1f       	adc	r31, r31
     804:	e0 59       	subi	r30, 0x90	; 144
     806:	fe 4f       	sbci	r31, 0xFE	; 254
     808:	21 e0       	ldi	r18, 0x01	; 1
     80a:	20 83       	st	Z, r18
			    player_lasers[i].x = x + 7;
     80c:	20 91 01 01 	lds	r18, 0x0101	; 0x800101 <_ZL1x>
     810:	29 5f       	subi	r18, 0xF9	; 249
     812:	21 83       	std	Z+1, r18	; 0x01
			    player_lasers[i].y = (current_weapon == WEP_ROCKET) ? (SHIP_Y - 8) : (SHIP_Y - 1);
     814:	20 91 ab 01 	lds	r18, 0x01AB	; 0x8001ab <current_weapon>
     818:	22 30       	cpi	r18, 0x02	; 2
     81a:	11 f4       	brne	.+4      	; 0x820 <__DATA_REGION_LENGTH__+0x20>
     81c:	24 e7       	ldi	r18, 0x74	; 116
     81e:	01 c0       	rjmp	.+2      	; 0x822 <__DATA_REGION_LENGTH__+0x22>
     820:	2b e7       	ldi	r18, 0x7B	; 123
     822:	88 0f       	add	r24, r24
     824:	99 1f       	adc	r25, r25
     826:	88 0f       	add	r24, r24
     828:	99 1f       	adc	r25, r25
     82a:	88 0f       	add	r24, r24
     82c:	99 1f       	adc	r25, r25
     82e:	fc 01       	movw	r30, r24
     830:	e0 59       	subi	r30, 0x90	; 144
     832:	fe 4f       	sbci	r31, 0xFE	; 254
     834:	22 83       	std	Z+2, r18	; 0x02
			    player_lasers[i].type = WEP_RAILGUN; // Burst stЕҷГӯlГӯ obyДҚejnГ© Railgun projektily
     836:	13 82       	std	Z+3, r1	; 0x03
    /**
     * @brief Plays a sound.
     * @param s Pointer to the sound to play.
     */
    static void playSound(sounds s){
        currentSound = &(soundList[s]);
     838:	8f ee       	ldi	r24, 0xEF	; 239
     83a:	94 e0       	ldi	r25, 0x04	; 4
     83c:	90 93 11 06 	sts	0x0611, r25	; 0x800611 <_ZN10Soundboard12currentSoundE+0x1>
     840:	80 93 10 06 	sts	0x0610, r24	; 0x800610 <_ZN10Soundboard12currentSoundE>
        isPlaying = true;
     844:	81 e0       	ldi	r24, 0x01	; 1
     846:	80 93 12 06 	sts	0x0612, r24	; 0x800612 <_ZN10Soundboard9isPlayingE>
     84a:	02 c0       	rjmp	.+4      	; 0x850 <__DATA_REGION_LENGTH__+0x50>
	    break;
    } // <-- ZDE KONДҢГҚ SWITCH TLAДҢГҚTKA

    // --- LOGIKA PRO DOKONДҢENГҚ BURST DГҒVKY (NynГӯ bДӣЕҫГӯ volnДӣ v gameplay_tick) ---
    if (burst_shots_left > 0 && burstTimer->isDone()) {
	    for (int i = 0; i < MAX_LASERS; i++) {
     84c:	01 96       	adiw	r24, 0x01	; 1
     84e:	c4 cf       	rjmp	.-120    	; 0x7d8 <_Z13gameplay_tickv+0x230>
			    
			    Soundboard::playSound(Soundboard::sfx_burst);
			    break;
		    }
	    }
	    burst_shots_left--;
     850:	80 91 aa 01 	lds	r24, 0x01AA	; 0x8001aa <burst_shots_left>
     854:	81 50       	subi	r24, 0x01	; 1
     856:	80 93 aa 01 	sts	0x01AA, r24	; 0x8001aa <burst_shots_left>
	    if (burst_shots_left > 0) {
     85a:	88 23       	and	r24, r24
     85c:	51 f0       	breq	.+20     	; 0x872 <__DATA_REGION_LENGTH__+0x72>
		    burstTimer->startTimerUs(250000); // 250 ms mezera mezi stЕҷelami v dГЎvce
     85e:	40 e9       	ldi	r20, 0x90	; 144
     860:	50 ed       	ldi	r21, 0xD0	; 208
     862:	63 e0       	ldi	r22, 0x03	; 3
     864:	70 e0       	ldi	r23, 0x00	; 0
     866:	80 91 a8 01 	lds	r24, 0x01A8	; 0x8001a8 <burstTimer>
     86a:	90 91 a9 01 	lds	r25, 0x01A9	; 0x8001a9 <burstTimer+0x1>
     86e:	0e 94 31 12 	call	0x2462	; 0x2462 <_ZN13SoftwareTimer12startTimerUsEm>
	    }
    }

    // --- FYZIKA A VYKRESLOVГҒNГҚ PROJEKTILЕ® ---
    if (projectileTimer->isDone()) {
     872:	80 91 32 01 	lds	r24, 0x0132	; 0x800132 <_ZL15projectileTimer>
     876:	90 91 33 01 	lds	r25, 0x0133	; 0x800133 <_ZL15projectileTimer+0x1>
     87a:	0e 94 37 12 	call	0x246e	; 0x246e <_ZN13SoftwareTimer6isDoneEv>
     87e:	88 23       	and	r24, r24
     880:	e9 f1       	breq	.+122    	; 0x8fc <__DATA_REGION_LENGTH__+0xfc>
     882:	c0 e0       	ldi	r28, 0x00	; 0
     884:	d0 e0       	ldi	r29, 0x00	; 0
     886:	90 e0       	ldi	r25, 0x00	; 0
	    bool any_laser_active = false;

		// A) HRГҒДҢOVY STЕҳELY
		for (int i = 0; i < MAX_LASERS; i++) {
     888:	c7 30       	cpi	r28, 0x07	; 7
     88a:	d1 05       	cpc	r29, r1
     88c:	9c f4       	brge	.+38     	; 0x8b4 <__DATA_REGION_LENGTH__+0xb4>
			if (player_lasers[i].active) {
     88e:	fe 01       	movw	r30, r28
     890:	ee 0f       	add	r30, r30
     892:	ff 1f       	adc	r31, r31
     894:	ee 0f       	add	r30, r30
     896:	ff 1f       	adc	r31, r31
     898:	ee 0f       	add	r30, r30
     89a:	ff 1f       	adc	r31, r31
     89c:	e0 59       	subi	r30, 0x90	; 144
     89e:	fe 4f       	sbci	r31, 0xFE	; 254
     8a0:	80 81       	ld	r24, Z
     8a2:	88 23       	and	r24, r24
     8a4:	29 f0       	breq	.+10     	; 0x8b0 <__DATA_REGION_LENGTH__+0xb0>
				any_laser_active = true;
				process_projectile(player_lasers[i], false); // false = nenГӯ to nepЕҷГӯtel
     8a6:	60 e0       	ldi	r22, 0x00	; 0
     8a8:	cf 01       	movw	r24, r30
     8aa:	0e 94 b1 01 	call	0x362	; 0x362 <_Z18process_projectileR10Projectileb>
	    bool any_laser_active = false;

		// A) HRГҒДҢOVY STЕҳELY
		for (int i = 0; i < MAX_LASERS; i++) {
			if (player_lasers[i].active) {
				any_laser_active = true;
     8ae:	91 e0       	ldi	r25, 0x01	; 1
    // --- FYZIKA A VYKRESLOVГҒNГҚ PROJEKTILЕ® ---
    if (projectileTimer->isDone()) {
	    bool any_laser_active = false;

		// A) HRГҒДҢOVY STЕҳELY
		for (int i = 0; i < MAX_LASERS; i++) {
     8b0:	21 96       	adiw	r28, 0x01	; 1
     8b2:	ea cf       	rjmp	.-44     	; 0x888 <__DATA_REGION_LENGTH__+0x88>
     8b4:	c0 e0       	ldi	r28, 0x00	; 0
     8b6:	d0 e0       	ldi	r29, 0x00	; 0
				process_projectile(player_lasers[i], false); // false = nenГӯ to nepЕҷГӯtel
			}
		}

		// B) NEPЕҳГҒTELSKГү STЕҳELY
		for (int i = 0; i < MAX_LASERS; i++) {
     8b8:	c7 30       	cpi	r28, 0x07	; 7
     8ba:	d1 05       	cpc	r29, r1
     8bc:	9c f4       	brge	.+38     	; 0x8e4 <__DATA_REGION_LENGTH__+0xe4>
			if (enemy_lasers[i].active) {
     8be:	fe 01       	movw	r30, r28
     8c0:	ee 0f       	add	r30, r30
     8c2:	ff 1f       	adc	r31, r31
     8c4:	ee 0f       	add	r30, r30
     8c6:	ff 1f       	adc	r31, r31
     8c8:	ee 0f       	add	r30, r30
     8ca:	ff 1f       	adc	r31, r31
     8cc:	e8 5c       	subi	r30, 0xC8	; 200
     8ce:	fe 4f       	sbci	r31, 0xFE	; 254
     8d0:	80 81       	ld	r24, Z
     8d2:	88 23       	and	r24, r24
     8d4:	29 f0       	breq	.+10     	; 0x8e0 <__DATA_REGION_LENGTH__+0xe0>
				any_laser_active = true;
				process_projectile(enemy_lasers[i], true); // true = je to nepЕҷГӯtel
     8d6:	61 e0       	ldi	r22, 0x01	; 1
     8d8:	cf 01       	movw	r24, r30
     8da:	0e 94 b1 01 	call	0x362	; 0x362 <_Z18process_projectileR10Projectileb>
		}

		// B) NEPЕҳГҒTELSKГү STЕҳELY
		for (int i = 0; i < MAX_LASERS; i++) {
			if (enemy_lasers[i].active) {
				any_laser_active = true;
     8de:	91 e0       	ldi	r25, 0x01	; 1
				process_projectile(player_lasers[i], false); // false = nenГӯ to nepЕҷГӯtel
			}
		}

		// B) NEPЕҳГҒTELSKГү STЕҳELY
		for (int i = 0; i < MAX_LASERS; i++) {
     8e0:	21 96       	adiw	r28, 0x01	; 1
     8e2:	ea cf       	rjmp	.-44     	; 0x8b8 <__DATA_REGION_LENGTH__+0xb8>
				process_projectile(enemy_lasers[i], true); // true = je to nepЕҷГӯtel
			}
		}

	    // Pokud letГӯ alespoЕҲ jeden laser (mЕҜj nebo cizГӯ), restartujeme ДҚasovaДҚ
	    if (any_laser_active) {
     8e4:	99 23       	and	r25, r25
     8e6:	51 f0       	breq	.+20     	; 0x8fc <__DATA_REGION_LENGTH__+0xfc>
		    projectileTimer->startTimerUs(25000);
     8e8:	48 ea       	ldi	r20, 0xA8	; 168
     8ea:	51 e6       	ldi	r21, 0x61	; 97
     8ec:	60 e0       	ldi	r22, 0x00	; 0
     8ee:	70 e0       	ldi	r23, 0x00	; 0
     8f0:	80 91 32 01 	lds	r24, 0x0132	; 0x800132 <_ZL15projectileTimer>
     8f4:	90 91 33 01 	lds	r25, 0x0133	; 0x800133 <_ZL15projectileTimer+0x1>
     8f8:	0e 94 31 12 	call	0x2462	; 0x2462 <_ZN13SoftwareTimer12startTimerUsEm>
	    }
    }

    // --- ДҢTENГҚ ENKODГүRU (POHYB LODДҡ) ---
    uint8_t current_A = (PIND & (1 << PD3)) >> PD3;
     8fc:	89 b1       	in	r24, 0x09	; 9
     8fe:	88 70       	andi	r24, 0x08	; 8
     900:	c8 2e       	mov	r12, r24
     902:	d1 2c       	mov	r13, r1
     904:	d5 94       	asr	r13
     906:	c7 94       	ror	r12
     908:	d5 94       	asr	r13
     90a:	c7 94       	ror	r12
     90c:	d5 94       	asr	r13
     90e:	c7 94       	ror	r12

    if (current_A != last_A) {
     910:	90 91 37 01 	lds	r25, 0x0137	; 0x800137 <_ZL6last_A>
     914:	c9 16       	cp	r12, r25
     916:	09 f4       	brne	.+2      	; 0x91a <__stack+0x1b>
     918:	93 c0       	rjmp	.+294    	; 0xa40 <__stack+0x141>
	    if (current_A == 0) {
     91a:	c1 10       	cpse	r12, r1
     91c:	8f c0       	rjmp	.+286    	; 0xa3c <__stack+0x13d>
		    uint8_t current_B = (PIND & (1 << PD2)) >> PD2;
     91e:	29 b1       	in	r18, 0x09	; 9
     920:	24 70       	andi	r18, 0x04	; 4
     922:	30 e0       	ldi	r19, 0x00	; 0
     924:	35 95       	asr	r19
     926:	27 95       	ror	r18
     928:	35 95       	asr	r19
     92a:	27 95       	ror	r18
		    uint8_t old_x = x; // Zapamatujeme si starou pozici
     92c:	10 91 01 01 	lds	r17, 0x0101	; 0x800101 <_ZL1x>

		    // --- VГҪpoДҚet novГ© pozice s wrappingem ---
		    if (current_B != current_A) {
     930:	c2 16       	cp	r12, r18
     932:	59 f0       	breq	.+22     	; 0x94a <__stack+0x4b>
			    if (x >= 3) {
     934:	13 30       	cpi	r17, 0x03	; 3
     936:	28 f0       	brcs	.+10     	; 0x942 <__stack+0x43>
				    x -= 3; // Doleva
     938:	8d ef       	ldi	r24, 0xFD	; 253
     93a:	81 0f       	add	r24, r17
     93c:	80 93 01 01 	sts	0x0101, r24	; 0x800101 <_ZL1x>
     940:	0d c0       	rjmp	.+26     	; 0x95c <__stack+0x5d>
				    } else {
				    x = DISPLAY_WIDTH - SHIP_LENGTH; // Skok na pravГҪ okraj (128 - 16 = 112)
     942:	80 e7       	ldi	r24, 0x70	; 112
     944:	80 93 01 01 	sts	0x0101, r24	; 0x800101 <_ZL1x>
     948:	09 c0       	rjmp	.+18     	; 0x95c <__stack+0x5d>
			    }
			    } else {
			    if (x <= (DISPLAY_WIDTH - SHIP_LENGTH - 3)) {
     94a:	1e 36       	cpi	r17, 0x6E	; 110
     94c:	28 f4       	brcc	.+10     	; 0x958 <__stack+0x59>
				    x += 3; // Doprava
     94e:	83 e0       	ldi	r24, 0x03	; 3
     950:	81 0f       	add	r24, r17
     952:	80 93 01 01 	sts	0x0101, r24	; 0x800101 <_ZL1x>
     956:	02 c0       	rjmp	.+4      	; 0x95c <__stack+0x5d>
				    } else {
				    x = 0; // Skok na levГҪ okraj
     958:	10 92 01 01 	sts	0x0101, r1	; 0x800101 <_ZL1x>
			    }
		    }

		    // Pokud jsme se pohnuli, pЕҷekreslГӯme
		    if (x != old_x) {
     95c:	80 91 01 01 	lds	r24, 0x0101	; 0x800101 <_ZL1x>
     960:	18 17       	cp	r17, r24
     962:	09 f4       	brne	.+2      	; 0x966 <__stack+0x67>
     964:	6b c0       	rjmp	.+214    	; 0xa3c <__stack+0x13d>
			    // 1. UklidГӯme "odpad"
			    
			    // A) DoЕЎlo k teleportu pЕҷes celou obrazovku? (Skok z 0 na 112 nebo naopak)
			    if ((old_x < 3 && x > 100) || (old_x > 100 && x < 3)) {
     966:	13 30       	cpi	r17, 0x03	; 3
     968:	10 f4       	brcc	.+4      	; 0x96e <__stack+0x6f>
     96a:	85 36       	cpi	r24, 0x65	; 101
     96c:	38 f4       	brcc	.+14     	; 0x97c <__stack+0x7d>
     96e:	15 36       	cpi	r17, 0x65	; 101
     970:	f8 f0       	brcs	.+62     	; 0x9b0 <__stack+0xb1>
     972:	83 30       	cpi	r24, 0x03	; 3
     974:	e8 f4       	brcc	.+58     	; 0x9b0 <__stack+0xb1>
     976:	e1 2c       	mov	r14, r1
     978:	f1 2c       	mov	r15, r1
     97a:	02 c0       	rjmp	.+4      	; 0x980 <__stack+0x81>
     97c:	e1 2c       	mov	r14, r1
     97e:	f1 2c       	mov	r15, r1
				    // MusГӯme smazat celou starou loДҸ (16x16)
				    for (int dx = 0; dx < SHIP_LENGTH; dx++) {
     980:	80 e1       	ldi	r24, 0x10	; 16
     982:	e8 16       	cp	r14, r24
     984:	f1 04       	cpc	r15, r1
     986:	0c f0       	brlt	.+2      	; 0x98a <__stack+0x8b>
     988:	50 c0       	rjmp	.+160    	; 0xa2a <__stack+0x12b>
     98a:	c0 e0       	ldi	r28, 0x00	; 0
     98c:	d0 e0       	ldi	r29, 0x00	; 0
					    for (int dy = 0; dy < SHIP_LENGTH; dy++) {
     98e:	c0 31       	cpi	r28, 0x10	; 16
     990:	d1 05       	cpc	r29, r1
     992:	54 f4       	brge	.+20     	; 0x9a8 <__stack+0xa9>
						    st7735_draw_pixel(old_x + dx, SHIP_Y + dy, 0xFFFF);
     994:	6c 2f       	mov	r22, r28
     996:	64 58       	subi	r22, 0x84	; 132
     998:	4f ef       	ldi	r20, 0xFF	; 255
     99a:	5f ef       	ldi	r21, 0xFF	; 255
     99c:	81 2f       	mov	r24, r17
     99e:	8e 0d       	add	r24, r14
     9a0:	0e 94 e3 07 	call	0xfc6	; 0xfc6 <st7735_draw_pixel>
			    
			    // A) DoЕЎlo k teleportu pЕҷes celou obrazovku? (Skok z 0 na 112 nebo naopak)
			    if ((old_x < 3 && x > 100) || (old_x > 100 && x < 3)) {
				    // MusГӯme smazat celou starou loДҸ (16x16)
				    for (int dx = 0; dx < SHIP_LENGTH; dx++) {
					    for (int dy = 0; dy < SHIP_LENGTH; dy++) {
     9a4:	21 96       	adiw	r28, 0x01	; 1
     9a6:	f3 cf       	rjmp	.-26     	; 0x98e <__stack+0x8f>
			    // 1. UklidГӯme "odpad"
			    
			    // A) DoЕЎlo k teleportu pЕҷes celou obrazovku? (Skok z 0 na 112 nebo naopak)
			    if ((old_x < 3 && x > 100) || (old_x > 100 && x < 3)) {
				    // MusГӯme smazat celou starou loДҸ (16x16)
				    for (int dx = 0; dx < SHIP_LENGTH; dx++) {
     9a8:	8f ef       	ldi	r24, 0xFF	; 255
     9aa:	e8 1a       	sub	r14, r24
     9ac:	f8 0a       	sbc	r15, r24
     9ae:	e8 cf       	rjmp	.-48     	; 0x980 <__stack+0x81>
						    st7735_draw_pixel(old_x + dx, SHIP_Y + dy, 0xFFFF);
					    }
				    }
			    }
			    // B) NormГЎlnГӯ posun doleva (maЕҫeme pravГҪ okraj)
			    else if (x < old_x) {
     9b0:	81 17       	cp	r24, r17
     9b2:	f0 f4       	brcc	.+60     	; 0x9f0 <__stack+0xf1>
     9b4:	c0 e0       	ldi	r28, 0x00	; 0
     9b6:	d0 e0       	ldi	r29, 0x00	; 0
				    for (int i = 0; i < SHIP_LENGTH; i++) {
     9b8:	c0 31       	cpi	r28, 0x10	; 16
     9ba:	d1 05       	cpc	r29, r1
     9bc:	b4 f5       	brge	.+108    	; 0xa2a <__stack+0x12b>
					    st7735_draw_pixel(old_x + 13, SHIP_Y + i, 0xFFFF);
     9be:	0c 2f       	mov	r16, r28
     9c0:	04 58       	subi	r16, 0x84	; 132
     9c2:	4f ef       	ldi	r20, 0xFF	; 255
     9c4:	5f ef       	ldi	r21, 0xFF	; 255
     9c6:	60 2f       	mov	r22, r16
     9c8:	8d e0       	ldi	r24, 0x0D	; 13
     9ca:	81 0f       	add	r24, r17
     9cc:	0e 94 e3 07 	call	0xfc6	; 0xfc6 <st7735_draw_pixel>
					    st7735_draw_pixel(old_x + 14, SHIP_Y + i, 0xFFFF);
     9d0:	4f ef       	ldi	r20, 0xFF	; 255
     9d2:	5f ef       	ldi	r21, 0xFF	; 255
     9d4:	60 2f       	mov	r22, r16
     9d6:	8e e0       	ldi	r24, 0x0E	; 14
     9d8:	81 0f       	add	r24, r17
     9da:	0e 94 e3 07 	call	0xfc6	; 0xfc6 <st7735_draw_pixel>
					    st7735_draw_pixel(old_x + 15, SHIP_Y + i, 0xFFFF);
     9de:	4f ef       	ldi	r20, 0xFF	; 255
     9e0:	5f ef       	ldi	r21, 0xFF	; 255
     9e2:	60 2f       	mov	r22, r16
     9e4:	8f e0       	ldi	r24, 0x0F	; 15
     9e6:	81 0f       	add	r24, r17
     9e8:	0e 94 e3 07 	call	0xfc6	; 0xfc6 <st7735_draw_pixel>
					    }
				    }
			    }
			    // B) NormГЎlnГӯ posun doleva (maЕҫeme pravГҪ okraj)
			    else if (x < old_x) {
				    for (int i = 0; i < SHIP_LENGTH; i++) {
     9ec:	21 96       	adiw	r28, 0x01	; 1
     9ee:	e4 cf       	rjmp	.-56     	; 0x9b8 <__stack+0xb9>
     9f0:	c0 e0       	ldi	r28, 0x00	; 0
     9f2:	d0 e0       	ldi	r29, 0x00	; 0
					    st7735_draw_pixel(old_x + 15, SHIP_Y + i, 0xFFFF);
				    }
			    }
			    // C) NormГЎlnГӯ posun doprava (maЕҫeme levГҪ okraj)
			    else {
				    for (int i = 0; i < SHIP_LENGTH; i++) {
     9f4:	c0 31       	cpi	r28, 0x10	; 16
     9f6:	d1 05       	cpc	r29, r1
     9f8:	c4 f4       	brge	.+48     	; 0xa2a <__stack+0x12b>
					    st7735_draw_pixel(old_x, SHIP_Y + i, 0xFFFF);
     9fa:	0c 2f       	mov	r16, r28
     9fc:	04 58       	subi	r16, 0x84	; 132
     9fe:	4f ef       	ldi	r20, 0xFF	; 255
     a00:	5f ef       	ldi	r21, 0xFF	; 255
     a02:	60 2f       	mov	r22, r16
     a04:	81 2f       	mov	r24, r17
     a06:	0e 94 e3 07 	call	0xfc6	; 0xfc6 <st7735_draw_pixel>
					    st7735_draw_pixel(old_x + 1, SHIP_Y + i, 0xFFFF);
     a0a:	4f ef       	ldi	r20, 0xFF	; 255
     a0c:	5f ef       	ldi	r21, 0xFF	; 255
     a0e:	60 2f       	mov	r22, r16
     a10:	81 e0       	ldi	r24, 0x01	; 1
     a12:	81 0f       	add	r24, r17
     a14:	0e 94 e3 07 	call	0xfc6	; 0xfc6 <st7735_draw_pixel>
					    st7735_draw_pixel(old_x + 2, SHIP_Y + i, 0xFFFF);
     a18:	4f ef       	ldi	r20, 0xFF	; 255
     a1a:	5f ef       	ldi	r21, 0xFF	; 255
     a1c:	60 2f       	mov	r22, r16
     a1e:	82 e0       	ldi	r24, 0x02	; 2
     a20:	81 0f       	add	r24, r17
     a22:	0e 94 e3 07 	call	0xfc6	; 0xfc6 <st7735_draw_pixel>
					    st7735_draw_pixel(old_x + 15, SHIP_Y + i, 0xFFFF);
				    }
			    }
			    // C) NormГЎlnГӯ posun doprava (maЕҫeme levГҪ okraj)
			    else {
				    for (int i = 0; i < SHIP_LENGTH; i++) {
     a26:	21 96       	adiw	r28, 0x01	; 1
     a28:	e5 cf       	rjmp	.-54     	; 0x9f4 <__stack+0xf5>
					    st7735_draw_pixel(old_x + 2, SHIP_Y + i, 0xFFFF);
				    }
			    }
			    
			    // 2. VykreslГӯme loДҸ na novГ© pozici
			    draw_ship(x, SHIP_Y, 0x001F);
     a2a:	80 91 01 01 	lds	r24, 0x0101	; 0x800101 <_ZL1x>
     a2e:	4f e1       	ldi	r20, 0x1F	; 31
     a30:	50 e0       	ldi	r21, 0x00	; 0
     a32:	6c e7       	ldi	r22, 0x7C	; 124
     a34:	70 e0       	ldi	r23, 0x00	; 0
     a36:	90 e0       	ldi	r25, 0x00	; 0
     a38:	0e 94 ad 05 	call	0xb5a	; 0xb5a <_Z9draw_shipiij>
		    }
	    }
	    last_A = current_A;
     a3c:	c0 92 37 01 	sts	0x0137, r12	; 0x800137 <_ZL6last_A>
    }	
	
	return STATE_GAMEPLAY;
}
     a40:	81 e0       	ldi	r24, 0x01	; 1
     a42:	df 91       	pop	r29
     a44:	cf 91       	pop	r28
     a46:	1f 91       	pop	r17
     a48:	0f 91       	pop	r16
     a4a:	ff 90       	pop	r15
     a4c:	ef 90       	pop	r14
     a4e:	df 90       	pop	r13
     a50:	cf 90       	pop	r12
     a52:	08 95       	ret

00000a54 <_Z9draw_chariicjj>:
	0x44,0x28,0x10,0x28,0x44, 0x0c,0x50,0x50,0x50,0x3c, 0x44,0x64,0x54,0x4c,0x44, 0x00,0x08,0x36,0x41,0x00,
	0x00,0x00,0x7f,0x00,0x00, 0x00,0x41,0x36,0x08,0x00, 0x10,0x08,0x08,0x10,0x08
};

// Funkce, kterГЎ nakreslГӯ JEDEN znak podle naЕЎГӯ ASCII tabulky nahoЕҷe
void draw_char(int x, int y, char c, uint16_t color, uint16_t bg_color) {
     a54:	8f 92       	push	r8
     a56:	9f 92       	push	r9
     a58:	af 92       	push	r10
     a5a:	bf 92       	push	r11
     a5c:	cf 92       	push	r12
     a5e:	df 92       	push	r13
     a60:	ef 92       	push	r14
     a62:	ff 92       	push	r15
     a64:	0f 93       	push	r16
     a66:	1f 93       	push	r17
     a68:	cf 93       	push	r28
     a6a:	df 93       	push	r29
	if (c < 32 || c > 126) return; // Znaky mimo tabulku ignorujeme
     a6c:	90 ee       	ldi	r25, 0xE0	; 224
     a6e:	94 0f       	add	r25, r20
     a70:	9f 35       	cpi	r25, 0x5F	; 95
     a72:	d0 f5       	brcc	.+116    	; 0xae8 <_Z9draw_chariicjj+0x94>
     a74:	79 01       	movw	r14, r18
     a76:	94 2e       	mov	r9, r20
     a78:	a6 2e       	mov	r10, r22
     a7a:	b8 2e       	mov	r11, r24
     a7c:	c0 e0       	ldi	r28, 0x00	; 0
     a7e:	d0 e0       	ldi	r29, 0x00	; 0
	
	for (int i = 0; i < 5; i++) { // Font je ЕЎirokГҪ 5 pixelЕҜ
     a80:	c5 30       	cpi	r28, 0x05	; 5
     a82:	d1 05       	cpc	r29, r1
     a84:	8c f5       	brge	.+98     	; 0xae8 <_Z9draw_chariicjj+0x94>
		uint8_t line = pgm_read_byte(&font5x7[(c - 32) * 5 + i]);
     a86:	e9 2d       	mov	r30, r9
     a88:	f0 e0       	ldi	r31, 0x00	; 0
     a8a:	b0 97       	sbiw	r30, 0x20	; 32
     a8c:	cf 01       	movw	r24, r30
     a8e:	88 0f       	add	r24, r24
     a90:	99 1f       	adc	r25, r25
     a92:	88 0f       	add	r24, r24
     a94:	99 1f       	adc	r25, r25
     a96:	e8 0f       	add	r30, r24
     a98:	f9 1f       	adc	r31, r25
     a9a:	ec 0f       	add	r30, r28
     a9c:	fd 1f       	adc	r31, r29
     a9e:	e8 57       	subi	r30, 0x78	; 120
     aa0:	ff 4f       	sbci	r31, 0xFF	; 255
     aa2:	84 90       	lpm	r8, Z
		for (int j = 0; j < 8; j++) { // VГҪЕЎka znaku
     aa4:	c1 2c       	mov	r12, r1
     aa6:	d1 2c       	mov	r13, r1
     aa8:	88 e0       	ldi	r24, 0x08	; 8
     aaa:	c8 16       	cp	r12, r24
     aac:	d1 04       	cpc	r13, r1
     aae:	d4 f4       	brge	.+52     	; 0xae4 <_Z9draw_chariicjj+0x90>
			if (line & 0x1) {
     ab0:	80 fe       	sbrs	r8, 0
     ab2:	08 c0       	rjmp	.+16     	; 0xac4 <_Z9draw_chariicjj+0x70>
				st7735_draw_pixel(x + i, y + j, color);
     ab4:	a7 01       	movw	r20, r14
     ab6:	6a 2d       	mov	r22, r10
     ab8:	6c 0d       	add	r22, r12
     aba:	8c 2f       	mov	r24, r28
     abc:	8b 0d       	add	r24, r11
     abe:	0e 94 e3 07 	call	0xfc6	; 0xfc6 <st7735_draw_pixel>
     ac2:	07 c0       	rjmp	.+14     	; 0xad2 <_Z9draw_chariicjj+0x7e>
				} else {
				st7735_draw_pixel(x + i, y + j, bg_color);
     ac4:	a8 01       	movw	r20, r16
     ac6:	6a 2d       	mov	r22, r10
     ac8:	6c 0d       	add	r22, r12
     aca:	8c 2f       	mov	r24, r28
     acc:	8b 0d       	add	r24, r11
     ace:	0e 94 e3 07 	call	0xfc6	; 0xfc6 <st7735_draw_pixel>
			}
			line >>= 1;
     ad2:	e8 2d       	mov	r30, r8
     ad4:	f0 e0       	ldi	r31, 0x00	; 0
     ad6:	f5 95       	asr	r31
     ad8:	e7 95       	ror	r30
     ada:	8e 2e       	mov	r8, r30
void draw_char(int x, int y, char c, uint16_t color, uint16_t bg_color) {
	if (c < 32 || c > 126) return; // Znaky mimo tabulku ignorujeme
	
	for (int i = 0; i < 5; i++) { // Font je ЕЎirokГҪ 5 pixelЕҜ
		uint8_t line = pgm_read_byte(&font5x7[(c - 32) * 5 + i]);
		for (int j = 0; j < 8; j++) { // VГҪЕЎka znaku
     adc:	8f ef       	ldi	r24, 0xFF	; 255
     ade:	c8 1a       	sub	r12, r24
     ae0:	d8 0a       	sbc	r13, r24
     ae2:	e2 cf       	rjmp	.-60     	; 0xaa8 <_Z9draw_chariicjj+0x54>

// Funkce, kterГЎ nakreslГӯ JEDEN znak podle naЕЎГӯ ASCII tabulky nahoЕҷe
void draw_char(int x, int y, char c, uint16_t color, uint16_t bg_color) {
	if (c < 32 || c > 126) return; // Znaky mimo tabulku ignorujeme
	
	for (int i = 0; i < 5; i++) { // Font je ЕЎirokГҪ 5 pixelЕҜ
     ae4:	21 96       	adiw	r28, 0x01	; 1
     ae6:	cc cf       	rjmp	.-104    	; 0xa80 <_Z9draw_chariicjj+0x2c>
				st7735_draw_pixel(x + i, y + j, bg_color);
			}
			line >>= 1;
		}
	}
}
     ae8:	df 91       	pop	r29
     aea:	cf 91       	pop	r28
     aec:	1f 91       	pop	r17
     aee:	0f 91       	pop	r16
     af0:	ff 90       	pop	r15
     af2:	ef 90       	pop	r14
     af4:	df 90       	pop	r13
     af6:	cf 90       	pop	r12
     af8:	bf 90       	pop	r11
     afa:	af 90       	pop	r10
     afc:	9f 90       	pop	r9
     afe:	8f 90       	pop	r8
     b00:	08 95       	ret

00000b02 <_Z11draw_stringiiPKcjj>:

// Funkce, kterГЎ projde celГҪ text a nakreslГӯ ho pГӯsmenko po pГӯsmenku
void draw_string(int x, int y, const char *str, uint16_t color, uint16_t bg_color) {
     b02:	8f 92       	push	r8
     b04:	9f 92       	push	r9
     b06:	af 92       	push	r10
     b08:	bf 92       	push	r11
     b0a:	cf 92       	push	r12
     b0c:	df 92       	push	r13
     b0e:	ef 92       	push	r14
     b10:	ff 92       	push	r15
     b12:	0f 93       	push	r16
     b14:	1f 93       	push	r17
     b16:	cf 93       	push	r28
     b18:	df 93       	push	r29
     b1a:	7c 01       	movw	r14, r24
     b1c:	4b 01       	movw	r8, r22
     b1e:	ea 01       	movw	r28, r20
     b20:	59 01       	movw	r10, r18
     b22:	68 01       	movw	r12, r16
	while (*str) {
     b24:	48 81       	ld	r20, Y
     b26:	44 23       	and	r20, r20
     b28:	59 f0       	breq	.+22     	; 0xb40 <_Z11draw_stringiiPKcjj+0x3e>
		draw_char(x, y, *str, color, bg_color);
     b2a:	86 01       	movw	r16, r12
     b2c:	95 01       	movw	r18, r10
     b2e:	b4 01       	movw	r22, r8
     b30:	c7 01       	movw	r24, r14
     b32:	0e 94 2a 05 	call	0xa54	; 0xa54 <_Z9draw_chariicjj>
		x += 6; // Posuneme se o 5 pixelЕҜ za znak + 1 pixel mezeru
     b36:	86 e0       	ldi	r24, 0x06	; 6
     b38:	e8 0e       	add	r14, r24
     b3a:	f1 1c       	adc	r15, r1
		str++;
     b3c:	21 96       	adiw	r28, 0x01	; 1
	}
}

// Funkce, kterГЎ projde celГҪ text a nakreslГӯ ho pГӯsmenko po pГӯsmenku
void draw_string(int x, int y, const char *str, uint16_t color, uint16_t bg_color) {
	while (*str) {
     b3e:	f2 cf       	rjmp	.-28     	; 0xb24 <_Z11draw_stringiiPKcjj+0x22>
		draw_char(x, y, *str, color, bg_color);
		x += 6; // Posuneme se o 5 pixelЕҜ za znak + 1 pixel mezeru
		str++;
	}
}
     b40:	df 91       	pop	r29
     b42:	cf 91       	pop	r28
     b44:	1f 91       	pop	r17
     b46:	0f 91       	pop	r16
     b48:	ff 90       	pop	r15
     b4a:	ef 90       	pop	r14
     b4c:	df 90       	pop	r13
     b4e:	cf 90       	pop	r12
     b50:	bf 90       	pop	r11
     b52:	af 90       	pop	r10
     b54:	9f 90       	pop	r9
     b56:	8f 90       	pop	r8
     b58:	08 95       	ret

00000b5a <_Z9draw_shipiij>:
const uint16_t spaceship_mask[16] PROGMEM = {
    0x0180, 0x0180, 0x03C0, 0x03C0, 0x17E8, 0x17E8, 0x37EC, 0x3E7C,
    0x7E7E, 0x6FF6, 0xEFF7, 0x7BDE, 0x33CC, 0x03C0, 0x0180, 0x0000
};

void draw_ship(int x, int y, uint16_t color) {
     b5a:	af 92       	push	r10
     b5c:	bf 92       	push	r11
     b5e:	cf 92       	push	r12
     b60:	df 92       	push	r13
     b62:	ef 92       	push	r14
     b64:	ff 92       	push	r15
     b66:	0f 93       	push	r16
     b68:	1f 93       	push	r17
     b6a:	cf 93       	push	r28
     b6c:	df 93       	push	r29
     b6e:	a8 2e       	mov	r10, r24
     b70:	b6 2e       	mov	r11, r22
     b72:	6a 01       	movw	r12, r20
    for (int i = 0; i < 16; i++) {
     b74:	00 e0       	ldi	r16, 0x00	; 0
     b76:	10 e0       	ldi	r17, 0x00	; 0
     b78:	00 31       	cpi	r16, 0x10	; 16
     b7a:	11 05       	cpc	r17, r1
     b7c:	84 f5       	brge	.+96     	; 0xbde <_Z9draw_shipiij+0x84>
        uint16_t row_data = pgm_read_word(&spaceship_mask[i]);
     b7e:	f8 01       	movw	r30, r16
     b80:	ee 0f       	add	r30, r30
     b82:	ff 1f       	adc	r31, r31
     b84:	e8 59       	subi	r30, 0x98	; 152
     b86:	ff 4f       	sbci	r31, 0xFF	; 255
     b88:	e5 90       	lpm	r14, Z+
     b8a:	f4 90       	lpm	r15, Z
        for (int j = 0; j < 16; j++) {
     b8c:	c0 e0       	ldi	r28, 0x00	; 0
     b8e:	d0 e0       	ldi	r29, 0x00	; 0
     b90:	c0 31       	cpi	r28, 0x10	; 16
     b92:	d1 05       	cpc	r29, r1
     b94:	0c f5       	brge	.+66     	; 0xbd8 <_Z9draw_shipiij+0x7e>
            if (row_data & (1 << (15 - j))) {
     b96:	2f e0       	ldi	r18, 0x0F	; 15
     b98:	30 e0       	ldi	r19, 0x00	; 0
     b9a:	2c 1b       	sub	r18, r28
     b9c:	3d 0b       	sbc	r19, r29
     b9e:	81 e0       	ldi	r24, 0x01	; 1
     ba0:	90 e0       	ldi	r25, 0x00	; 0
     ba2:	02 c0       	rjmp	.+4      	; 0xba8 <_Z9draw_shipiij+0x4e>
     ba4:	88 0f       	add	r24, r24
     ba6:	99 1f       	adc	r25, r25
     ba8:	2a 95       	dec	r18
     baa:	e2 f7       	brpl	.-8      	; 0xba4 <_Z9draw_shipiij+0x4a>
     bac:	8e 21       	and	r24, r14
     bae:	9f 21       	and	r25, r15
     bb0:	89 2b       	or	r24, r25
     bb2:	41 f0       	breq	.+16     	; 0xbc4 <_Z9draw_shipiij+0x6a>
                st7735_draw_pixel(x + j, y + i, color);
     bb4:	a6 01       	movw	r20, r12
     bb6:	6b 2d       	mov	r22, r11
     bb8:	60 0f       	add	r22, r16
     bba:	8c 2f       	mov	r24, r28
     bbc:	8a 0d       	add	r24, r10
     bbe:	0e 94 e3 07 	call	0xfc6	; 0xfc6 <st7735_draw_pixel>
     bc2:	08 c0       	rjmp	.+16     	; 0xbd4 <_Z9draw_shipiij+0x7a>
            } else {
                st7735_draw_pixel(x + j, y + i, 0xFFFF);
     bc4:	4f ef       	ldi	r20, 0xFF	; 255
     bc6:	5f ef       	ldi	r21, 0xFF	; 255
     bc8:	6b 2d       	mov	r22, r11
     bca:	60 0f       	add	r22, r16
     bcc:	8c 2f       	mov	r24, r28
     bce:	8a 0d       	add	r24, r10
     bd0:	0e 94 e3 07 	call	0xfc6	; 0xfc6 <st7735_draw_pixel>
};

void draw_ship(int x, int y, uint16_t color) {
    for (int i = 0; i < 16; i++) {
        uint16_t row_data = pgm_read_word(&spaceship_mask[i]);
        for (int j = 0; j < 16; j++) {
     bd4:	21 96       	adiw	r28, 0x01	; 1
     bd6:	dc cf       	rjmp	.-72     	; 0xb90 <_Z9draw_shipiij+0x36>
    0x0180, 0x0180, 0x03C0, 0x03C0, 0x17E8, 0x17E8, 0x37EC, 0x3E7C,
    0x7E7E, 0x6FF6, 0xEFF7, 0x7BDE, 0x33CC, 0x03C0, 0x0180, 0x0000
};

void draw_ship(int x, int y, uint16_t color) {
    for (int i = 0; i < 16; i++) {
     bd8:	0f 5f       	subi	r16, 0xFF	; 255
     bda:	1f 4f       	sbci	r17, 0xFF	; 255
     bdc:	cd cf       	rjmp	.-102    	; 0xb78 <_Z9draw_shipiij+0x1e>
            } else {
                st7735_draw_pixel(x + j, y + i, 0xFFFF);
            }
        }
    }
}
     bde:	df 91       	pop	r29
     be0:	cf 91       	pop	r28
     be2:	1f 91       	pop	r17
     be4:	0f 91       	pop	r16
     be6:	ff 90       	pop	r15
     be8:	ef 90       	pop	r14
     bea:	df 90       	pop	r13
     bec:	cf 90       	pop	r12
     bee:	bf 90       	pop	r11
     bf0:	af 90       	pop	r10
     bf2:	08 95       	ret

00000bf4 <hardware_timer_init>:

volatile uint32_t current_microseconds = 0;
uint8_t period_us = 0;

void hardware_timer_init(uint8_t period){
    ATOMIC_BLOCK(ATOMIC_RESTORESTATE){
     bf4:	3f b7       	in	r19, 0x3f	; 63
    return 1;
}

static __inline__ uint8_t __iCliRetVal(void)
{
    cli();
     bf6:	f8 94       	cli
     bf8:	91 e0       	ldi	r25, 0x01	; 1
     bfa:	15 c0       	rjmp	.+42     	; 0xc26 <hardware_timer_init+0x32>
        current_microseconds = 0;
     bfc:	10 92 ad 01 	sts	0x01AD, r1	; 0x8001ad <current_microseconds>
     c00:	10 92 ae 01 	sts	0x01AE, r1	; 0x8001ae <current_microseconds+0x1>
     c04:	10 92 af 01 	sts	0x01AF, r1	; 0x8001af <current_microseconds+0x2>
     c08:	10 92 b0 01 	sts	0x01B0, r1	; 0x8001b0 <current_microseconds+0x3>
        TCCR0A = 0b00000010; //Set timer to CTC mode + enable output on pin //0b01000010
     c0c:	92 e0       	ldi	r25, 0x02	; 2
     c0e:	94 bd       	out	0x24, r25	; 36
        TCCR0B = 0b00000010; //Set time source to internal clock divided by 8
     c10:	95 bd       	out	0x25, r25	; 37
        TCNT0 = 0; //Set timer register value to 0
     c12:	16 bc       	out	0x26, r1	; 38
        period_us = period;
     c14:	80 93 ac 01 	sts	0x01AC, r24	; 0x8001ac <period_us>
        OCR0A = period_us * 2 - 1; //Set value for time compare (why -1? - overflow (from max to 0) count as a tick too)
     c18:	28 2f       	mov	r18, r24
     c1a:	22 0f       	add	r18, r18
     c1c:	21 50       	subi	r18, 0x01	; 1
     c1e:	27 bd       	out	0x27, r18	; 39
        TIMSK0 = 0b00000010;  //Allow interrupt from compare match A
     c20:	90 93 6e 00 	sts	0x006E, r25	; 0x80006e <__TEXT_REGION_LENGTH__+0x7f806e>

volatile uint32_t current_microseconds = 0;
uint8_t period_us = 0;

void hardware_timer_init(uint8_t period){
    ATOMIC_BLOCK(ATOMIC_RESTORESTATE){
     c24:	90 e0       	ldi	r25, 0x00	; 0
     c26:	91 11       	cpse	r25, r1
     c28:	e9 cf       	rjmp	.-46     	; 0xbfc <hardware_timer_init+0x8>
    (void)__s;
}

static __inline__ void __iRestore(const  uint8_t *__s)
{
    SREG = *__s;
     c2a:	3f bf       	out	0x3f, r19	; 63
    __asm__ volatile ("" ::: "memory");
     c2c:	08 95       	ret

00000c2e <hardware_pwm_init>:
        TIMSK0 = 0b00000010;  //Allow interrupt from compare match A
    }
}

void hardware_pwm_init(){
    ATOMIC_BLOCK(ATOMIC_RESTORESTATE){
     c2e:	9f b7       	in	r25, 0x3f	; 63
    return 1;
}

static __inline__ uint8_t __iCliRetVal(void)
{
    cli();
     c30:	f8 94       	cli
     c32:	81 e0       	ldi	r24, 0x01	; 1
     c34:	0e c0       	rjmp	.+28     	; 0xc52 <hardware_pwm_init+0x24>
        DDRB |= 0b00000010; //Enables OC1A pin
     c36:	84 b1       	in	r24, 0x04	; 4
     c38:	82 60       	ori	r24, 0x02	; 2
     c3a:	84 b9       	out	0x04, r24	; 4
        TCNT1 = 0;
     c3c:	10 92 85 00 	sts	0x0085, r1	; 0x800085 <__TEXT_REGION_LENGTH__+0x7f8085>
     c40:	10 92 84 00 	sts	0x0084, r1	; 0x800084 <__TEXT_REGION_LENGTH__+0x7f8084>
        OCR1A = 0;
     c44:	10 92 89 00 	sts	0x0089, r1	; 0x800089 <__TEXT_REGION_LENGTH__+0x7f8089>
     c48:	10 92 88 00 	sts	0x0088, r1	; 0x800088 <__TEXT_REGION_LENGTH__+0x7f8088>
        TIMSK1 = 0;
     c4c:	10 92 6f 00 	sts	0x006F, r1	; 0x80006f <__TEXT_REGION_LENGTH__+0x7f806f>
        TIMSK0 = 0b00000010;  //Allow interrupt from compare match A
    }
}

void hardware_pwm_init(){
    ATOMIC_BLOCK(ATOMIC_RESTORESTATE){
     c50:	80 e0       	ldi	r24, 0x00	; 0
     c52:	81 11       	cpse	r24, r1
     c54:	f0 cf       	rjmp	.-32     	; 0xc36 <hardware_pwm_init+0x8>
    (void)__s;
}

static __inline__ void __iRestore(const  uint8_t *__s)
{
    SREG = *__s;
     c56:	9f bf       	out	0x3f, r25	; 63
    __asm__ volatile ("" ::: "memory");
     c58:	08 95       	ret

00000c5a <hardware_pwm_set>:
        TIMSK1 = 0;
    }
}

void hardware_pwm_set(uint32_t freq){
    uint32_t ocr = (16000000UL / (256UL * freq * 2)) - 1;
     c5a:	9b 01       	movw	r18, r22
     c5c:	ac 01       	movw	r20, r24
     c5e:	01 2e       	mov	r0, r17
     c60:	19 e0       	ldi	r17, 0x09	; 9
     c62:	22 0f       	add	r18, r18
     c64:	33 1f       	adc	r19, r19
     c66:	44 1f       	adc	r20, r20
     c68:	55 1f       	adc	r21, r21
     c6a:	1a 95       	dec	r17
     c6c:	d1 f7       	brne	.-12     	; 0xc62 <hardware_pwm_set+0x8>
     c6e:	10 2d       	mov	r17, r0
     c70:	60 e0       	ldi	r22, 0x00	; 0
     c72:	74 e2       	ldi	r23, 0x24	; 36
     c74:	84 ef       	ldi	r24, 0xF4	; 244
     c76:	90 e0       	ldi	r25, 0x00	; 0
     c78:	0e 94 09 13 	call	0x2612	; 0x2612 <__udivmodsi4>
     c7c:	ba 01       	movw	r22, r20
     c7e:	a9 01       	movw	r20, r18
     c80:	41 50       	subi	r20, 0x01	; 1
     c82:	51 09       	sbc	r21, r1
     c84:	61 09       	sbc	r22, r1
     c86:	71 09       	sbc	r23, r1
    ATOMIC_BLOCK(ATOMIC_RESTORESTATE){
     c88:	9f b7       	in	r25, 0x3f	; 63
    return 1;
}

static __inline__ uint8_t __iCliRetVal(void)
{
    cli();
     c8a:	f8 94       	cli
     c8c:	81 e0       	ldi	r24, 0x01	; 1
     c8e:	12 c0       	rjmp	.+36     	; 0xcb4 <hardware_pwm_set+0x5a>
        TCCR1B = 0b00001000;   // Stop clock, keep CTC mode
     c90:	e1 e8       	ldi	r30, 0x81	; 129
     c92:	f0 e0       	ldi	r31, 0x00	; 0
     c94:	88 e0       	ldi	r24, 0x08	; 8
     c96:	80 83       	st	Z, r24
        TCNT1  = 0;
     c98:	10 92 85 00 	sts	0x0085, r1	; 0x800085 <__TEXT_REGION_LENGTH__+0x7f8085>
     c9c:	10 92 84 00 	sts	0x0084, r1	; 0x800084 <__TEXT_REGION_LENGTH__+0x7f8084>
        OCR1A  = ocr & 0xffff;
     ca0:	50 93 89 00 	sts	0x0089, r21	; 0x800089 <__TEXT_REGION_LENGTH__+0x7f8089>
     ca4:	40 93 88 00 	sts	0x0088, r20	; 0x800088 <__TEXT_REGION_LENGTH__+0x7f8088>

        //TCCR1A = 0b10000000;   // COM1A = 10 (clear on match) temporarily
        //TCCR1C = (1 << FOC1A); // Force compare - drive OC1A LOW, sets flip-flop to 0

        TCCR1A = 0b01000000;   // Toggle OC1A on compare match
     ca8:	80 e4       	ldi	r24, 0x40	; 64
     caa:	80 93 80 00 	sts	0x0080, r24	; 0x800080 <__TEXT_REGION_LENGTH__+0x7f8080>
        TCCR1B = 0b00001100;   // CTC (WGM12) + prescaler 256
     cae:	8c e0       	ldi	r24, 0x0C	; 12
     cb0:	80 83       	st	Z, r24
    }
}

void hardware_pwm_set(uint32_t freq){
    uint32_t ocr = (16000000UL / (256UL * freq * 2)) - 1;
    ATOMIC_BLOCK(ATOMIC_RESTORESTATE){
     cb2:	80 e0       	ldi	r24, 0x00	; 0
     cb4:	81 11       	cpse	r24, r1
     cb6:	ec cf       	rjmp	.-40     	; 0xc90 <hardware_pwm_set+0x36>
    (void)__s;
}

static __inline__ void __iRestore(const  uint8_t *__s)
{
    SREG = *__s;
     cb8:	9f bf       	out	0x3f, r25	; 63
    __asm__ volatile ("" ::: "memory");
     cba:	08 95       	ret

00000cbc <hardware_pwm_reset>:
        TCCR1B = 0b00001100;   // CTC (WGM12) + prescaler 256
    }
}

void hardware_pwm_reset(){
    ATOMIC_BLOCK(ATOMIC_RESTORESTATE){
     cbc:	9f b7       	in	r25, 0x3f	; 63
    return 1;
}

static __inline__ uint8_t __iCliRetVal(void)
{
    cli();
     cbe:	f8 94       	cli
     cc0:	81 e0       	ldi	r24, 0x01	; 1
     cc2:	0e c0       	rjmp	.+28     	; 0xce0 <hardware_pwm_reset+0x24>
        TCCR1B &= ~0b00000111; //Stops clock
     cc4:	e1 e8       	ldi	r30, 0x81	; 129
     cc6:	f0 e0       	ldi	r31, 0x00	; 0
     cc8:	80 81       	ld	r24, Z
     cca:	88 7f       	andi	r24, 0xF8	; 248
     ccc:	80 83       	st	Z, r24
        TCCR1A &= ~((1 << COM1A1) | (1 << COM1A0)); // Disconnect OC1A
     cce:	e0 e8       	ldi	r30, 0x80	; 128
     cd0:	f0 e0       	ldi	r31, 0x00	; 0
     cd2:	80 81       	ld	r24, Z
     cd4:	8f 73       	andi	r24, 0x3F	; 63
     cd6:	80 83       	st	Z, r24
        PORTB &= ~0b00000010; //Sets output to low
     cd8:	85 b1       	in	r24, 0x05	; 5
     cda:	8d 7f       	andi	r24, 0xFD	; 253
     cdc:	85 b9       	out	0x05, r24	; 5
        TCCR1B = 0b00001100;   // CTC (WGM12) + prescaler 256
    }
}

void hardware_pwm_reset(){
    ATOMIC_BLOCK(ATOMIC_RESTORESTATE){
     cde:	80 e0       	ldi	r24, 0x00	; 0
     ce0:	81 11       	cpse	r24, r1
     ce2:	f0 cf       	rjmp	.-32     	; 0xcc4 <hardware_pwm_reset+0x8>
    (void)__s;
}

static __inline__ void __iRestore(const  uint8_t *__s)
{
    SREG = *__s;
     ce4:	9f bf       	out	0x3f, r25	; 63
    __asm__ volatile ("" ::: "memory");
     ce6:	08 95       	ret

00000ce8 <micros>:
}

uint32_t micros(){
    uint32_t value;
    //To disable interrupts while reading value
    ATOMIC_BLOCK(ATOMIC_RESTORESTATE) {
     ce8:	2f b7       	in	r18, 0x3f	; 63
    return 1;
}

static __inline__ uint8_t __iCliRetVal(void)
{
    cli();
     cea:	f8 94       	cli
     cec:	31 e0       	ldi	r19, 0x01	; 1
     cee:	09 c0       	rjmp	.+18     	; 0xd02 <micros+0x1a>
        value = current_microseconds;
     cf0:	60 91 ad 01 	lds	r22, 0x01AD	; 0x8001ad <current_microseconds>
     cf4:	70 91 ae 01 	lds	r23, 0x01AE	; 0x8001ae <current_microseconds+0x1>
     cf8:	80 91 af 01 	lds	r24, 0x01AF	; 0x8001af <current_microseconds+0x2>
     cfc:	90 91 b0 01 	lds	r25, 0x01B0	; 0x8001b0 <current_microseconds+0x3>
}

uint32_t micros(){
    uint32_t value;
    //To disable interrupts while reading value
    ATOMIC_BLOCK(ATOMIC_RESTORESTATE) {
     d00:	30 e0       	ldi	r19, 0x00	; 0
     d02:	31 11       	cpse	r19, r1
     d04:	f5 cf       	rjmp	.-22     	; 0xcf0 <micros+0x8>
    (void)__s;
}

static __inline__ void __iRestore(const  uint8_t *__s)
{
    SREG = *__s;
     d06:	2f bf       	out	0x3f, r18	; 63
        value = current_microseconds;
    }
    return value;
}
     d08:	08 95       	ret

00000d0a <__vector_14>:


ISR(TIMER0_COMPA_vect){
     d0a:	1f 92       	push	r1
     d0c:	0f 92       	push	r0
     d0e:	0f b6       	in	r0, 0x3f	; 63
     d10:	0f 92       	push	r0
     d12:	11 24       	eor	r1, r1
     d14:	2f 93       	push	r18
     d16:	8f 93       	push	r24
     d18:	9f 93       	push	r25
     d1a:	af 93       	push	r26
     d1c:	bf 93       	push	r27
    current_microseconds += period_us;
     d1e:	80 91 ad 01 	lds	r24, 0x01AD	; 0x8001ad <current_microseconds>
     d22:	90 91 ae 01 	lds	r25, 0x01AE	; 0x8001ae <current_microseconds+0x1>
     d26:	a0 91 af 01 	lds	r26, 0x01AF	; 0x8001af <current_microseconds+0x2>
     d2a:	b0 91 b0 01 	lds	r27, 0x01B0	; 0x8001b0 <current_microseconds+0x3>
     d2e:	20 91 ac 01 	lds	r18, 0x01AC	; 0x8001ac <period_us>
     d32:	82 0f       	add	r24, r18
     d34:	91 1d       	adc	r25, r1
     d36:	a1 1d       	adc	r26, r1
     d38:	b1 1d       	adc	r27, r1
     d3a:	80 93 ad 01 	sts	0x01AD, r24	; 0x8001ad <current_microseconds>
     d3e:	90 93 ae 01 	sts	0x01AE, r25	; 0x8001ae <current_microseconds+0x1>
     d42:	a0 93 af 01 	sts	0x01AF, r26	; 0x8001af <current_microseconds+0x2>
     d46:	b0 93 b0 01 	sts	0x01B0, r27	; 0x8001b0 <current_microseconds+0x3>
}
     d4a:	bf 91       	pop	r27
     d4c:	af 91       	pop	r26
     d4e:	9f 91       	pop	r25
     d50:	8f 91       	pop	r24
     d52:	2f 91       	pop	r18
     d54:	0f 90       	pop	r0
     d56:	0f be       	out	0x3f, r0	; 63
     d58:	0f 90       	pop	r0
     d5a:	1f 90       	pop	r1
     d5c:	18 95       	reti

00000d5e <spi_init>:
#include "hal/spi.h"

void spi_init(void) {
    // NastavenГӯ pinЕҜ pro SPI jako vГҪstupnГӯ:
    // PB2 (CS), PB3 (MOSI), PB5 (SCK)
    DDRB |= (1 << PB2) | (1 << PB3) | (1 << PB5);
     d5e:	84 b1       	in	r24, 0x04	; 4
     d60:	8c 62       	ori	r24, 0x2C	; 44
     d62:	84 b9       	out	0x04, r24	; 4
    
    // MISO (PB4) je vstupnГӯ (pro jistotu, i kdyЕҫ vГҪchozГӯ stav to zajiЕЎЕҘuje)
    DDRB &= ~(1 << PB4);
     d64:	84 b1       	in	r24, 0x04	; 4
     d66:	8f 7e       	andi	r24, 0xEF	; 239
     d68:	84 b9       	out	0x04, r24	; 4

    // Abychom se ujistili, Еҫe Slave (displej) nenГӯ vybrГЎn, nastavГӯme CS na HIGH
    PORTB |= (1 << PB2);
     d6a:	85 b1       	in	r24, 0x05	; 5
     d6c:	84 60       	ori	r24, 0x04	; 4
     d6e:	85 b9       	out	0x05, r24	; 5

    // NastavenГӯ SPI kontrolnГӯho registru (SPCR):
    // SPE = SPI Enable 
    // MSTR = Master (jsme pГЎnem komunikace)
    // SPR0 a SPR1 = 0 (tГӯm spoleДҚnДӣ s SPI2X=1 nastavГӯme max. rychlost)
    SPCR = (1 << SPE) | (1 << MSTR);
     d70:	80 e5       	ldi	r24, 0x50	; 80
     d72:	8c bd       	out	0x2c, r24	; 44
    
    // ZapnutГӯ dvojnГЎsobnГ© rychlosti hodin pro SPI (f_osc / 2)
    SPSR = (1 << SPI2X);
     d74:	81 e0       	ldi	r24, 0x01	; 1
     d76:	8d bd       	out	0x2d, r24	; 45
     d78:	08 95       	ret

00000d7a <spi_transfer>:
}

uint8_t spi_transfer(uint8_t data) {
    // VloЕҫenГӯ dat do registru odstartuje odesГӯlГЎnГӯ
    SPDR = data;
     d7a:	8e bd       	out	0x2e, r24	; 46
    
    // ДҢekГЎnГӯ na dokonДҚenГӯ pЕҷenosu (kontrolujeme vlajku SPIF)
    while (!(SPSR & (1 << SPIF)));
     d7c:	0d b4       	in	r0, 0x2d	; 45
     d7e:	07 fe       	sbrs	r0, 7
     d80:	fd cf       	rjmp	.-6      	; 0xd7c <spi_transfer+0x2>
    
    // VrГЎcenГӯ pЕҷijatГҪch dat (displej sice vДӣtЕЎinou nic nevracГӯ, ale standard to vyЕҫaduje)
    return SPDR;
     d82:	8e b5       	in	r24, 0x2e	; 46
     d84:	08 95       	ret

00000d86 <st7735_write_command>:
#include "hal/st7735.h"
#include "hal/spi.h"
#include <util/delay.h> // PotЕҷebujeme pro ДҚekГЎnГӯ pЕҷi inicializaci

void st7735_write_command(uint8_t cmd) {
    ST7735_DC_CMD();        // ЕҳГӯkГЎme displeji: "Tohle je pЕҷГӯkaz!"
     d86:	9b b1       	in	r25, 0x0b	; 11
     d88:	9e 7f       	andi	r25, 0xFE	; 254
     d8a:	9b b9       	out	0x0b, r25	; 11
    ST7735_CS_LOW();        // Vybereme displej (zaДҚГЎtek komunikace)
     d8c:	95 b1       	in	r25, 0x05	; 5
     d8e:	9b 7f       	andi	r25, 0xFB	; 251
     d90:	95 b9       	out	0x05, r25	; 5
    spi_transfer(cmd);      // OdeЕЎleme pЕҷes SPI
     d92:	0e 94 bd 06 	call	0xd7a	; 0xd7a <spi_transfer>
    ST7735_CS_HIGH();       // UkonДҚГӯme komunikaci
     d96:	85 b1       	in	r24, 0x05	; 5
     d98:	84 60       	ori	r24, 0x04	; 4
     d9a:	85 b9       	out	0x05, r24	; 5
     d9c:	08 95       	ret

00000d9e <st7735_write_data>:
}

void st7735_write_data(uint8_t data) {
    ST7735_DC_DATA();       // ЕҳГӯkГЎme displeji: "Tohle jsou data!"
     d9e:	9b b1       	in	r25, 0x0b	; 11
     da0:	91 60       	ori	r25, 0x01	; 1
     da2:	9b b9       	out	0x0b, r25	; 11
    ST7735_CS_LOW();
     da4:	95 b1       	in	r25, 0x05	; 5
     da6:	9b 7f       	andi	r25, 0xFB	; 251
     da8:	95 b9       	out	0x05, r25	; 5
    spi_transfer(data);
     daa:	0e 94 bd 06 	call	0xd7a	; 0xd7a <spi_transfer>
    ST7735_CS_HIGH();
     dae:	85 b1       	in	r24, 0x05	; 5
     db0:	84 60       	ori	r24, 0x04	; 4
     db2:	85 b9       	out	0x05, r24	; 5
     db4:	08 95       	ret

00000db6 <st7735_init>:
}

void st7735_init(void) {
    // NastavenГӯ pinЕҜ DC (PD0) a RST (PB0) jako vГҪstupy
	DDRB |= (1 << PB0);
     db6:	84 b1       	in	r24, 0x04	; 4
     db8:	81 60       	ori	r24, 0x01	; 1
     dba:	84 b9       	out	0x04, r24	; 4
	DDRD |= (1 << PD0);
     dbc:	8a b1       	in	r24, 0x0a	; 10
     dbe:	81 60       	ori	r24, 0x01	; 1
     dc0:	8a b9       	out	0x0a, r24	; 10
    
    // HardwarovГҪ reset
    ST7735_RST_HIGH();
     dc2:	85 b1       	in	r24, 0x05	; 5
     dc4:	81 60       	ori	r24, 0x01	; 1
     dc6:	85 b9       	out	0x05, r24	; 5
	#else
		//round up by default
		__ticks_dc = (uint32_t)(ceil(fabs(__tmp)));
	#endif

	__builtin_avr_delay_cycles(__ticks_dc);
     dc8:	8f e3       	ldi	r24, 0x3F	; 63
     dca:	9c e9       	ldi	r25, 0x9C	; 156
     dcc:	01 97       	sbiw	r24, 0x01	; 1
     dce:	f1 f7       	brne	.-4      	; 0xdcc <st7735_init+0x16>
     dd0:	00 c0       	rjmp	.+0      	; 0xdd2 <st7735_init+0x1c>
     dd2:	00 00       	nop
    _delay_ms(10);
    ST7735_RST_LOW();
     dd4:	85 b1       	in	r24, 0x05	; 5
     dd6:	8e 7f       	andi	r24, 0xFE	; 254
     dd8:	85 b9       	out	0x05, r24	; 5
     dda:	9f ef       	ldi	r25, 0xFF	; 255
     ddc:	20 e7       	ldi	r18, 0x70	; 112
     dde:	82 e0       	ldi	r24, 0x02	; 2
     de0:	91 50       	subi	r25, 0x01	; 1
     de2:	20 40       	sbci	r18, 0x00	; 0
     de4:	80 40       	sbci	r24, 0x00	; 0
     de6:	e1 f7       	brne	.-8      	; 0xde0 <st7735_init+0x2a>
     de8:	00 c0       	rjmp	.+0      	; 0xdea <st7735_init+0x34>
     dea:	00 00       	nop
    _delay_ms(50);
    ST7735_RST_HIGH();
     dec:	85 b1       	in	r24, 0x05	; 5
     dee:	81 60       	ori	r24, 0x01	; 1
     df0:	85 b9       	out	0x05, r24	; 5
     df2:	9f ef       	ldi	r25, 0xFF	; 255
     df4:	2b ed       	ldi	r18, 0xDB	; 219
     df6:	85 e0       	ldi	r24, 0x05	; 5
     df8:	91 50       	subi	r25, 0x01	; 1
     dfa:	20 40       	sbci	r18, 0x00	; 0
     dfc:	80 40       	sbci	r24, 0x00	; 0
     dfe:	e1 f7       	brne	.-8      	; 0xdf8 <st7735_init+0x42>
     e00:	00 c0       	rjmp	.+0      	; 0xe02 <st7735_init+0x4c>
     e02:	00 00       	nop
    _delay_ms(120);
    
    // SoftwarovГҪ reset (Command 0x01)
    st7735_write_command(0x01);
     e04:	81 e0       	ldi	r24, 0x01	; 1
     e06:	0e 94 c3 06 	call	0xd86	; 0xd86 <st7735_write_command>
     e0a:	9f ef       	ldi	r25, 0xFF	; 255
     e0c:	22 e5       	ldi	r18, 0x52	; 82
     e0e:	87 e0       	ldi	r24, 0x07	; 7
     e10:	91 50       	subi	r25, 0x01	; 1
     e12:	20 40       	sbci	r18, 0x00	; 0
     e14:	80 40       	sbci	r24, 0x00	; 0
     e16:	e1 f7       	brne	.-8      	; 0xe10 <st7735_init+0x5a>
     e18:	00 c0       	rjmp	.+0      	; 0xe1a <st7735_init+0x64>
     e1a:	00 00       	nop
    _delay_ms(150);
    
    // Konec reЕҫimu spГЎnku (Command 0x11)
    st7735_write_command(0x11);
     e1c:	81 e1       	ldi	r24, 0x11	; 17
     e1e:	0e 94 c3 06 	call	0xd86	; 0xd86 <st7735_write_command>
     e22:	9f ef       	ldi	r25, 0xFF	; 255
     e24:	2b ed       	ldi	r18, 0xDB	; 219
     e26:	85 e0       	ldi	r24, 0x05	; 5
     e28:	91 50       	subi	r25, 0x01	; 1
     e2a:	20 40       	sbci	r18, 0x00	; 0
     e2c:	80 40       	sbci	r24, 0x00	; 0
     e2e:	e1 f7       	brne	.-8      	; 0xe28 <st7735_init+0x72>
     e30:	00 c0       	rjmp	.+0      	; 0xe32 <st7735_init+0x7c>
     e32:	00 00       	nop
    _delay_ms(120);

    // NastavenГӯ formГЎtu barev na 16-bit / pixel (Command 0x3A)
    st7735_write_command(0x3A);
     e34:	8a e3       	ldi	r24, 0x3A	; 58
     e36:	0e 94 c3 06 	call	0xd86	; 0xd86 <st7735_write_command>
    st7735_write_data(0x05); // 0x05 = 16-bit
     e3a:	85 e0       	ldi	r24, 0x05	; 5
     e3c:	0e 94 cf 06 	call	0xd9e	; 0xd9e <st7735_write_data>
    
    // Orientace displeje 
    st7735_write_command(0x36);
     e40:	86 e3       	ldi	r24, 0x36	; 54
     e42:	0e 94 c3 06 	call	0xd86	; 0xd86 <st7735_write_command>
    st7735_write_data(0xC0); // 0xC0 otoДҚГӯ displej o 180В°
     e46:	80 ec       	ldi	r24, 0xC0	; 192
     e48:	0e 94 cf 06 	call	0xd9e	; 0xd9e <st7735_write_data>
    
    // ZapnutГӯ displeje (Command 0x29)
    st7735_write_command(0x29);
     e4c:	89 e2       	ldi	r24, 0x29	; 41
     e4e:	0e 94 c3 06 	call	0xd86	; 0xd86 <st7735_write_command>
     e52:	08 95       	ret

00000e54 <st7735_fill_screen>:
}

void st7735_fill_screen(uint16_t color) {
     e54:	cf 92       	push	r12
     e56:	df 92       	push	r13
     e58:	ef 92       	push	r14
     e5a:	ff 92       	push	r15
     e5c:	cf 93       	push	r28
     e5e:	df 93       	push	r29
     e60:	c8 2f       	mov	r28, r24
     e62:	d9 2f       	mov	r29, r25
    // PЕҷГӯkaz pro nastavenГӯ okna vykreslovГЎnГӯ (celГЎ obrazovka 128x160)
    st7735_write_command(0x2A); // NastavenГӯ sloupcЕҜ
     e64:	8a e2       	ldi	r24, 0x2A	; 42
     e66:	0e 94 c3 06 	call	0xd86	; 0xd86 <st7735_write_command>
    st7735_write_data(0x00); st7735_write_data(0x00); // Start: 0
     e6a:	80 e0       	ldi	r24, 0x00	; 0
     e6c:	0e 94 cf 06 	call	0xd9e	; 0xd9e <st7735_write_data>
     e70:	80 e0       	ldi	r24, 0x00	; 0
     e72:	0e 94 cf 06 	call	0xd9e	; 0xd9e <st7735_write_data>
    st7735_write_data(0x00); st7735_write_data(127);  // Konec: 127
     e76:	80 e0       	ldi	r24, 0x00	; 0
     e78:	0e 94 cf 06 	call	0xd9e	; 0xd9e <st7735_write_data>
     e7c:	8f e7       	ldi	r24, 0x7F	; 127
     e7e:	0e 94 cf 06 	call	0xd9e	; 0xd9e <st7735_write_data>
    
    st7735_write_command(0x2B); // NastavenГӯ ЕҷГЎdkЕҜ
     e82:	8b e2       	ldi	r24, 0x2B	; 43
     e84:	0e 94 c3 06 	call	0xd86	; 0xd86 <st7735_write_command>
    st7735_write_data(0x00); st7735_write_data(0x00); // Start: 0
     e88:	80 e0       	ldi	r24, 0x00	; 0
     e8a:	0e 94 cf 06 	call	0xd9e	; 0xd9e <st7735_write_data>
     e8e:	80 e0       	ldi	r24, 0x00	; 0
     e90:	0e 94 cf 06 	call	0xd9e	; 0xd9e <st7735_write_data>
    st7735_write_data(0x00); st7735_write_data(159);  // Konec: 159
     e94:	80 e0       	ldi	r24, 0x00	; 0
     e96:	0e 94 cf 06 	call	0xd9e	; 0xd9e <st7735_write_data>
     e9a:	8f e9       	ldi	r24, 0x9F	; 159
     e9c:	0e 94 cf 06 	call	0xd9e	; 0xd9e <st7735_write_data>
    
    st7735_write_command(0x2C); // PЕҷГӯkaz pro zГЎpis do pamДӣti RAM (kreslenГӯ)
     ea0:	8c e2       	ldi	r24, 0x2C	; 44
     ea2:	0e 94 c3 06 	call	0xd86	; 0xd86 <st7735_write_command>
    
    // RozdДӣlГӯme 16-bit barvu na dva 8-bitovГ© bajty
    uint8_t color_high = color >> 8;
    uint8_t color_low = color & 0xFF;
    
    ST7735_DC_DATA();
     ea6:	8b b1       	in	r24, 0x0b	; 11
     ea8:	81 60       	ori	r24, 0x01	; 1
     eaa:	8b b9       	out	0x0b, r24	; 11
    ST7735_CS_LOW();
     eac:	85 b1       	in	r24, 0x05	; 5
     eae:	8b 7f       	andi	r24, 0xFB	; 251
     eb0:	85 b9       	out	0x05, r24	; 5
    
    // VyplnГӯme vЕЎech 128 * 160 pixelЕҜ
    for (uint32_t i = 0; i < (128 * 160); i++) {
     eb2:	c1 2c       	mov	r12, r1
     eb4:	d1 2c       	mov	r13, r1
     eb6:	76 01       	movw	r14, r12
     eb8:	0b c0       	rjmp	.+22     	; 0xed0 <st7735_fill_screen+0x7c>
        spi_transfer(color_high);
     eba:	8d 2f       	mov	r24, r29
     ebc:	0e 94 bd 06 	call	0xd7a	; 0xd7a <spi_transfer>
        spi_transfer(color_low);
     ec0:	8c 2f       	mov	r24, r28
     ec2:	0e 94 bd 06 	call	0xd7a	; 0xd7a <spi_transfer>
    
    ST7735_DC_DATA();
    ST7735_CS_LOW();
    
    // VyplnГӯme vЕЎech 128 * 160 pixelЕҜ
    for (uint32_t i = 0; i < (128 * 160); i++) {
     ec6:	8f ef       	ldi	r24, 0xFF	; 255
     ec8:	c8 1a       	sub	r12, r24
     eca:	d8 0a       	sbc	r13, r24
     ecc:	e8 0a       	sbc	r14, r24
     ece:	f8 0a       	sbc	r15, r24
     ed0:	c1 14       	cp	r12, r1
     ed2:	80 e5       	ldi	r24, 0x50	; 80
     ed4:	d8 06       	cpc	r13, r24
     ed6:	e1 04       	cpc	r14, r1
     ed8:	f1 04       	cpc	r15, r1
     eda:	78 f3       	brcs	.-34     	; 0xeba <st7735_fill_screen+0x66>
        spi_transfer(color_high);
        spi_transfer(color_low);
    }
    
    ST7735_CS_HIGH();
     edc:	85 b1       	in	r24, 0x05	; 5
     ede:	84 60       	ori	r24, 0x04	; 4
     ee0:	85 b9       	out	0x05, r24	; 5
}
     ee2:	df 91       	pop	r29
     ee4:	cf 91       	pop	r28
     ee6:	ff 90       	pop	r15
     ee8:	ef 90       	pop	r14
     eea:	df 90       	pop	r13
     eec:	cf 90       	pop	r12
     eee:	08 95       	ret

00000ef0 <st7735_fill_rect>:

void st7735_fill_rect(uint8_t x, uint8_t y, uint8_t w, uint8_t h, uint16_t color) {
     ef0:	df 92       	push	r13
     ef2:	ef 92       	push	r14
     ef4:	ff 92       	push	r15
     ef6:	0f 93       	push	r16
     ef8:	1f 93       	push	r17
     efa:	cf 93       	push	r28
     efc:	df 93       	push	r29
     efe:	d8 2f       	mov	r29, r24
     f00:	f6 2e       	mov	r15, r22
     f02:	c4 2f       	mov	r28, r20
     f04:	d2 2e       	mov	r13, r18
	// 1. Ochrana proti vykreslenГӯ mimo obrazovku
	if (x >= 128 || y >= 160) return;
     f06:	88 23       	and	r24, r24
     f08:	0c f4       	brge	.+2      	; 0xf0c <st7735_fill_rect+0x1c>
     f0a:	55 c0       	rjmp	.+170    	; 0xfb6 <st7735_fill_rect+0xc6>
     f0c:	8f e9       	ldi	r24, 0x9F	; 159
     f0e:	86 17       	cp	r24, r22
     f10:	08 f4       	brcc	.+2      	; 0xf14 <st7735_fill_rect+0x24>
     f12:	51 c0       	rjmp	.+162    	; 0xfb6 <st7735_fill_rect+0xc6>
	if (x + w > 128) w = 128 - x;
     f14:	84 2f       	mov	r24, r20
     f16:	90 e0       	ldi	r25, 0x00	; 0
     f18:	8d 0f       	add	r24, r29
     f1a:	91 1d       	adc	r25, r1
     f1c:	81 38       	cpi	r24, 0x81	; 129
     f1e:	91 05       	cpc	r25, r1
     f20:	14 f0       	brlt	.+4      	; 0xf26 <st7735_fill_rect+0x36>
     f22:	c0 e8       	ldi	r28, 0x80	; 128
     f24:	cd 1b       	sub	r28, r29
	if (y + h > 160) h = 160 - y;
     f26:	8d 2d       	mov	r24, r13
     f28:	90 e0       	ldi	r25, 0x00	; 0
     f2a:	8f 0d       	add	r24, r15
     f2c:	91 1d       	adc	r25, r1
     f2e:	81 3a       	cpi	r24, 0xA1	; 161
     f30:	91 05       	cpc	r25, r1
     f32:	1c f0       	brlt	.+6      	; 0xf3a <st7735_fill_rect+0x4a>
     f34:	80 ea       	ldi	r24, 0xA0	; 160
     f36:	d8 2e       	mov	r13, r24
     f38:	df 18       	sub	r13, r15

	// 2. NastavenГӯ okna pro sloupce (X aЕҫ X + ЕЎГӯЕҷka - 1)
	st7735_write_command(0x2A);
     f3a:	8a e2       	ldi	r24, 0x2A	; 42
     f3c:	0e 94 c3 06 	call	0xd86	; 0xd86 <st7735_write_command>
	st7735_write_data(0x00); st7735_write_data(x);
     f40:	80 e0       	ldi	r24, 0x00	; 0
     f42:	0e 94 cf 06 	call	0xd9e	; 0xd9e <st7735_write_data>
     f46:	8d 2f       	mov	r24, r29
     f48:	0e 94 cf 06 	call	0xd9e	; 0xd9e <st7735_write_data>
	st7735_write_data(0x00); st7735_write_data(x + w - 1);
     f4c:	80 e0       	ldi	r24, 0x00	; 0
     f4e:	0e 94 cf 06 	call	0xd9e	; 0xd9e <st7735_write_data>
     f52:	8c 2f       	mov	r24, r28
     f54:	8d 0f       	add	r24, r29
     f56:	81 50       	subi	r24, 0x01	; 1
     f58:	0e 94 cf 06 	call	0xd9e	; 0xd9e <st7735_write_data>
	
	// 3. NastavenГӯ okna pro ЕҷГЎdky (Y aЕҫ Y + vГҪЕЎka - 1)
	st7735_write_command(0x2B);
     f5c:	8b e2       	ldi	r24, 0x2B	; 43
     f5e:	0e 94 c3 06 	call	0xd86	; 0xd86 <st7735_write_command>
	st7735_write_data(0x00); st7735_write_data(y);
     f62:	80 e0       	ldi	r24, 0x00	; 0
     f64:	0e 94 cf 06 	call	0xd9e	; 0xd9e <st7735_write_data>
     f68:	8f 2d       	mov	r24, r15
     f6a:	0e 94 cf 06 	call	0xd9e	; 0xd9e <st7735_write_data>
	st7735_write_data(0x00); st7735_write_data(y + h - 1);
     f6e:	80 e0       	ldi	r24, 0x00	; 0
     f70:	0e 94 cf 06 	call	0xd9e	; 0xd9e <st7735_write_data>
     f74:	8d 2d       	mov	r24, r13
     f76:	8f 0d       	add	r24, r15
     f78:	81 50       	subi	r24, 0x01	; 1
     f7a:	0e 94 cf 06 	call	0xd9e	; 0xd9e <st7735_write_data>
	
	// 4. PЕҷГӯkaz pro zГЎpis barev
	st7735_write_command(0x2C);
     f7e:	8c e2       	ldi	r24, 0x2C	; 44
     f80:	0e 94 c3 06 	call	0xd86	; 0xd86 <st7735_write_command>
	
	// 5. RozdДӣlenГӯ barvy
	uint8_t color_high = color >> 8;
	uint8_t color_low = color & 0xFF;
	
	ST7735_DC_DATA();
     f84:	8b b1       	in	r24, 0x0b	; 11
     f86:	81 60       	ori	r24, 0x01	; 1
     f88:	8b b9       	out	0x0b, r24	; 11
	ST7735_CS_LOW();
     f8a:	85 b1       	in	r24, 0x05	; 5
     f8c:	8b 7f       	andi	r24, 0xFB	; 251
     f8e:	85 b9       	out	0x05, r24	; 5
	
	// 6. RychlГ© odeslГЎnГӯ vЕЎech pixelЕҜ v danГ©m obdГ©lnГӯku
	uint16_t total_pixels = w * h;
     f90:	cd 9d       	mul	r28, r13
     f92:	70 01       	movw	r14, r0
     f94:	11 24       	eor	r1, r1
	for (uint16_t i = 0; i < total_pixels; i++) {
     f96:	c0 e0       	ldi	r28, 0x00	; 0
     f98:	d0 e0       	ldi	r29, 0x00	; 0
     f9a:	07 c0       	rjmp	.+14     	; 0xfaa <st7735_fill_rect+0xba>
		spi_transfer(color_high);
     f9c:	81 2f       	mov	r24, r17
     f9e:	0e 94 bd 06 	call	0xd7a	; 0xd7a <spi_transfer>
		spi_transfer(color_low);
     fa2:	80 2f       	mov	r24, r16
     fa4:	0e 94 bd 06 	call	0xd7a	; 0xd7a <spi_transfer>
	ST7735_DC_DATA();
	ST7735_CS_LOW();
	
	// 6. RychlГ© odeslГЎnГӯ vЕЎech pixelЕҜ v danГ©m obdГ©lnГӯku
	uint16_t total_pixels = w * h;
	for (uint16_t i = 0; i < total_pixels; i++) {
     fa8:	21 96       	adiw	r28, 0x01	; 1
     faa:	ce 15       	cp	r28, r14
     fac:	df 05       	cpc	r29, r15
     fae:	b0 f3       	brcs	.-20     	; 0xf9c <st7735_fill_rect+0xac>
		spi_transfer(color_high);
		spi_transfer(color_low);
	}
	
	ST7735_CS_HIGH();
     fb0:	85 b1       	in	r24, 0x05	; 5
     fb2:	84 60       	ori	r24, 0x04	; 4
     fb4:	85 b9       	out	0x05, r24	; 5
}
     fb6:	df 91       	pop	r29
     fb8:	cf 91       	pop	r28
     fba:	1f 91       	pop	r17
     fbc:	0f 91       	pop	r16
     fbe:	ff 90       	pop	r15
     fc0:	ef 90       	pop	r14
     fc2:	df 90       	pop	r13
     fc4:	08 95       	ret

00000fc6 <st7735_draw_pixel>:

void st7735_draw_pixel(uint8_t x, uint8_t y, uint16_t color) {
     fc6:	0f 93       	push	r16
     fc8:	1f 93       	push	r17
     fca:	cf 93       	push	r28
     fcc:	df 93       	push	r29
     fce:	d8 2f       	mov	r29, r24
     fd0:	c6 2f       	mov	r28, r22
     fd2:	14 2f       	mov	r17, r20
     fd4:	05 2f       	mov	r16, r21
	// 1. NastavГӯme okno pro kreslenГӯ jen na ten jeden konkrГ©tnГӯ pixel (Start = Konec)
	st7735_write_command(0x2A);
     fd6:	8a e2       	ldi	r24, 0x2A	; 42
     fd8:	0e 94 c3 06 	call	0xd86	; 0xd86 <st7735_write_command>
	st7735_write_data(0x00); st7735_write_data(x);
     fdc:	80 e0       	ldi	r24, 0x00	; 0
     fde:	0e 94 cf 06 	call	0xd9e	; 0xd9e <st7735_write_data>
     fe2:	8d 2f       	mov	r24, r29
     fe4:	0e 94 cf 06 	call	0xd9e	; 0xd9e <st7735_write_data>
	st7735_write_data(0x00); st7735_write_data(x);
     fe8:	80 e0       	ldi	r24, 0x00	; 0
     fea:	0e 94 cf 06 	call	0xd9e	; 0xd9e <st7735_write_data>
     fee:	8d 2f       	mov	r24, r29
     ff0:	0e 94 cf 06 	call	0xd9e	; 0xd9e <st7735_write_data>
	
	st7735_write_command(0x2B);
     ff4:	8b e2       	ldi	r24, 0x2B	; 43
     ff6:	0e 94 c3 06 	call	0xd86	; 0xd86 <st7735_write_command>
	st7735_write_data(0x00); st7735_write_data(y);
     ffa:	80 e0       	ldi	r24, 0x00	; 0
     ffc:	0e 94 cf 06 	call	0xd9e	; 0xd9e <st7735_write_data>
    1000:	8c 2f       	mov	r24, r28
    1002:	0e 94 cf 06 	call	0xd9e	; 0xd9e <st7735_write_data>
	st7735_write_data(0x00); st7735_write_data(y);
    1006:	80 e0       	ldi	r24, 0x00	; 0
    1008:	0e 94 cf 06 	call	0xd9e	; 0xd9e <st7735_write_data>
    100c:	8c 2f       	mov	r24, r28
    100e:	0e 94 cf 06 	call	0xd9e	; 0xd9e <st7735_write_data>
	
	// 2. PoЕЎleme pЕҷГӯkaz pro zГЎpis barvy
	st7735_write_command(0x2C);
    1012:	8c e2       	ldi	r24, 0x2C	; 44
    1014:	0e 94 c3 06 	call	0xd86	; 0xd86 <st7735_write_command>
	
	// 3. PoЕЎleme samotnou barvu
	ST7735_DC_DATA();
    1018:	8b b1       	in	r24, 0x0b	; 11
    101a:	81 60       	ori	r24, 0x01	; 1
    101c:	8b b9       	out	0x0b, r24	; 11
	ST7735_CS_LOW();
    101e:	85 b1       	in	r24, 0x05	; 5
    1020:	8b 7f       	andi	r24, 0xFB	; 251
    1022:	85 b9       	out	0x05, r24	; 5
	spi_transfer(color >> 8);
    1024:	80 2f       	mov	r24, r16
    1026:	0e 94 bd 06 	call	0xd7a	; 0xd7a <spi_transfer>
	spi_transfer(color & 0xFF);
    102a:	81 2f       	mov	r24, r17
    102c:	0e 94 bd 06 	call	0xd7a	; 0xd7a <spi_transfer>
	ST7735_CS_HIGH();
    1030:	85 b1       	in	r24, 0x05	; 5
    1032:	84 60       	ori	r24, 0x04	; 4
    1034:	85 b9       	out	0x05, r24	; 5
    1036:	df 91       	pop	r29
    1038:	cf 91       	pop	r28
    103a:	1f 91       	pop	r17
    103c:	0f 91       	pop	r16
    103e:	08 95       	ret

00001040 <__vector_18>:
        }
        tx_handler.iterator += length;
        UART_TX_UDRE_INT_ON()
    }
    return length;
}
    1040:	1f 92       	push	r1
    1042:	0f 92       	push	r0
    1044:	0f b6       	in	r0, 0x3f	; 63
    1046:	0f 92       	push	r0
    1048:	11 24       	eor	r1, r1
    104a:	8f 93       	push	r24
    104c:	af 93       	push	r26
    104e:	bf 93       	push	r27
    1050:	ef 93       	push	r30
    1052:	ff 93       	push	r31
    1054:	80 91 31 02 	lds	r24, 0x0231	; 0x800231 <rx_handler+0x80>
    1058:	81 38       	cpi	r24, 0x81	; 129
    105a:	68 f4       	brcc	.+26     	; 0x1076 <__vector_18+0x36>
    105c:	a1 e3       	ldi	r26, 0x31	; 49
    105e:	b2 e0       	ldi	r27, 0x02	; 2
    1060:	ec 91       	ld	r30, X
    1062:	81 e0       	ldi	r24, 0x01	; 1
    1064:	8e 0f       	add	r24, r30
    1066:	8c 93       	st	X, r24
    1068:	f0 e0       	ldi	r31, 0x00	; 0
    106a:	80 91 c6 00 	lds	r24, 0x00C6	; 0x8000c6 <__TEXT_REGION_LENGTH__+0x7f80c6>
    106e:	ef 54       	subi	r30, 0x4F	; 79
    1070:	fe 4f       	sbci	r31, 0xFE	; 254
    1072:	80 83       	st	Z, r24
    1074:	02 c0       	rjmp	.+4      	; 0x107a <__vector_18+0x3a>
    1076:	80 91 c6 00 	lds	r24, 0x00C6	; 0x8000c6 <__TEXT_REGION_LENGTH__+0x7f80c6>
    107a:	ff 91       	pop	r31
    107c:	ef 91       	pop	r30
    107e:	bf 91       	pop	r27
    1080:	af 91       	pop	r26
    1082:	8f 91       	pop	r24
    1084:	0f 90       	pop	r0
    1086:	0f be       	out	0x3f, r0	; 63
    1088:	0f 90       	pop	r0
    108a:	1f 90       	pop	r1
    108c:	18 95       	reti

0000108e <__vector_19>:


ISR(USART_UDRE_vect){
    108e:	1f 92       	push	r1
    1090:	0f 92       	push	r0
    1092:	0f b6       	in	r0, 0x3f	; 63
    1094:	0f 92       	push	r0
    1096:	11 24       	eor	r1, r1
    1098:	8f 93       	push	r24
    109a:	af 93       	push	r26
    109c:	bf 93       	push	r27
    109e:	ef 93       	push	r30
    10a0:	ff 93       	push	r31
    if (tx_handler.iterator > 0){
    10a2:	80 91 b2 02 	lds	r24, 0x02B2	; 0x8002b2 <tx_handler+0x80>
    10a6:	88 23       	and	r24, r24
    10a8:	61 f0       	breq	.+24     	; 0x10c2 <__vector_19+0x34>
        UDR0 = tx_handler.data_buffer[--tx_handler.iterator];
    10aa:	a2 eb       	ldi	r26, 0xB2	; 178
    10ac:	b2 e0       	ldi	r27, 0x02	; 2
    10ae:	ec 91       	ld	r30, X
    10b0:	e1 50       	subi	r30, 0x01	; 1
    10b2:	ec 93       	st	X, r30
    10b4:	f0 e0       	ldi	r31, 0x00	; 0
    10b6:	ee 5c       	subi	r30, 0xCE	; 206
    10b8:	fd 4f       	sbci	r31, 0xFD	; 253
    10ba:	80 81       	ld	r24, Z
    10bc:	80 93 c6 00 	sts	0x00C6, r24	; 0x8000c6 <__TEXT_REGION_LENGTH__+0x7f80c6>
    10c0:	05 c0       	rjmp	.+10     	; 0x10cc <__vector_19+0x3e>
    }
    else {
        UART_TX_UDRE_INT_OFF()
    10c2:	e1 ec       	ldi	r30, 0xC1	; 193
    10c4:	f0 e0       	ldi	r31, 0x00	; 0
    10c6:	80 81       	ld	r24, Z
    10c8:	8f 7d       	andi	r24, 0xDF	; 223
    10ca:	80 83       	st	Z, r24
    }
}
    10cc:	ff 91       	pop	r31
    10ce:	ef 91       	pop	r30
    10d0:	bf 91       	pop	r27
    10d2:	af 91       	pop	r26
    10d4:	8f 91       	pop	r24
    10d6:	0f 90       	pop	r0
    10d8:	0f be       	out	0x3f, r0	; 63
    10da:	0f 90       	pop	r0
    10dc:	1f 90       	pop	r1
    10de:	18 95       	reti

000010e0 <main>:
#include "Graphics.hpp"
#include "Gameplay.hpp"
#include "Soundboard.hpp"

int main(void) {
	sei();
    10e0:	78 94       	sei

	// Inicializace portщ
	DDRB = 0b00100010;
    10e2:	82 e2       	ldi	r24, 0x22	; 34
    10e4:	84 b9       	out	0x04, r24	; 4
	PORTB = 0b00000000;
    10e6:	15 b8       	out	0x05, r1	; 5
	
	// OPRAVA: Vҡechny piny PD2 aһ PD5 nastavнme jako VSTUPY (0)
	DDRD &= ~((1 << PD2) | (1 << PD3) | (1 << PD4) | (1 << PD5));
    10e8:	8a b1       	in	r24, 0x0a	; 10
    10ea:	83 7c       	andi	r24, 0xC3	; 195
    10ec:	8a b9       	out	0x0a, r24	; 10
	// Zapneme Pull-up rezistory pro tyto piny
	PORTD |= (1 << PD2) | (1 << PD3) | (1 << PD4) | (1 << PD5);
    10ee:	8b b1       	in	r24, 0x0b	; 11
    10f0:	8c 63       	ori	r24, 0x3C	; 60
    10f2:	8b b9       	out	0x0b, r24	; 11

	spi_init();
    10f4:	0e 94 af 06 	call	0xd5e	; 0xd5e <spi_init>
	st7735_init();
    10f8:	0e 94 db 06 	call	0xdb6	; 0xdb6 <st7735_init>
	SoftwareTimerPool::initTimerPool(10);
    10fc:	8a e0       	ldi	r24, 0x0A	; 10
    10fe:	0e 94 b5 11 	call	0x236a	; 0x236a <_ZN17SoftwareTimerPool13initTimerPoolEh>
	// Шнzenн stavщ
	GameState current_state = STATE_MENU;
	bool state_just_changed = true;
	
	// Soundboard
	Soundboard::initSoundboard();
    1102:	0e 94 49 12 	call	0x2492	; 0x2492 <_ZN10Soundboard14initSoundboardEv>
	st7735_init();
	SoftwareTimerPool::initTimerPool(10);
	
	// Шнzenн stavщ
	GameState current_state = STATE_MENU;
	bool state_just_changed = true;
    1106:	d1 e0       	ldi	r29, 0x01	; 1
	spi_init();
	st7735_init();
	SoftwareTimerPool::initTimerPool(10);
	
	// Шнzenн stavщ
	GameState current_state = STATE_MENU;
    1108:	c0 e0       	ldi	r28, 0x00	; 0
    110a:	05 c0       	rjmp	.+10     	; 0x1116 <main+0x36>
					state_just_changed = false;
				}
				
				GameState next_state_menu = menu_tick();
				if (next_state_menu != current_state) {
					current_state = next_state_menu;
    110c:	c8 2f       	mov	r28, r24
					state_just_changed = true;
    110e:	d1 e0       	ldi	r29, 0x01	; 1
    1110:	02 c0       	rjmp	.+4      	; 0x1116 <main+0x36>
					state_just_changed = false;
				}
				
				GameState next_state_game = gameplay_tick();
				if (next_state_game != current_state) {
					current_state = next_state_game;
    1112:	c8 2f       	mov	r28, r24
					state_just_changed = true;
    1114:	d1 e0       	ldi	r29, 0x01	; 1
	
	// Soundboard
	Soundboard::initSoundboard();

	while (1) {
		SoftwareTimerPool::tick();
    1116:	0e 94 d2 11 	call	0x23a4	; 0x23a4 <_ZN17SoftwareTimerPool4tickEv>
		Soundboard::play();
    111a:	0e 94 54 12 	call	0x24a8	; 0x24a8 <_ZN10Soundboard4playEv>

		// HLAVNН STAVOVЭ AUTOMAT
		switch (current_state) {
    111e:	c1 30       	cpi	r28, 0x01	; 1
    1120:	71 f0       	breq	.+28     	; 0x113e <main+0x5e>
    1122:	18 f0       	brcs	.+6      	; 0x112a <main+0x4a>
    1124:	c3 30       	cpi	r28, 0x03	; 3
    1126:	a9 f0       	breq	.+42     	; 0x1152 <main+0x72>
    1128:	f6 cf       	rjmp	.-20     	; 0x1116 <main+0x36>
			
			case STATE_MENU: { 
				if (state_just_changed) {
    112a:	dd 23       	and	r29, r29
    112c:	19 f0       	breq	.+6      	; 0x1134 <main+0x54>
					menu_init();
    112e:	0e 94 18 09 	call	0x1230	; 0x1230 <_Z9menu_initv>
					state_just_changed = false;
    1132:	d0 e0       	ldi	r29, 0x00	; 0
				}
				
				GameState next_state_menu = menu_tick();
    1134:	0e 94 30 09 	call	0x1260	; 0x1260 <_Z9menu_tickv>
				if (next_state_menu != current_state) {
    1138:	c8 13       	cpse	r28, r24
    113a:	e8 cf       	rjmp	.-48     	; 0x110c <main+0x2c>
    113c:	ec cf       	rjmp	.-40     	; 0x1116 <main+0x36>
				}
				break;
			} // <-- Zde blok konин

			case STATE_GAMEPLAY: { 
				if (state_just_changed) {
    113e:	dd 23       	and	r29, r29
    1140:	19 f0       	breq	.+6      	; 0x1148 <main+0x68>
					gameplay_init();
    1142:	0e 94 5d 01 	call	0x2ba	; 0x2ba <_Z13gameplay_initv>
					state_just_changed = false;
    1146:	d0 e0       	ldi	r29, 0x00	; 0
				}
				
				GameState next_state_game = gameplay_tick();
    1148:	0e 94 d4 02 	call	0x5a8	; 0x5a8 <_Z13gameplay_tickv>
				if (next_state_game != current_state) {
    114c:	c8 13       	cpse	r28, r24
    114e:	e1 cf       	rjmp	.-62     	; 0x1112 <main+0x32>
    1150:	e2 cf       	rjmp	.-60     	; 0x1116 <main+0x36>
				}
				break;
			}

			case STATE_SCORE: { 
				if (state_just_changed) {
    1152:	dd 23       	and	r29, r29
    1154:	01 f3       	breq	.-64     	; 0x1116 <main+0x36>
					st7735_fill_screen(0x0000);
    1156:	80 e0       	ldi	r24, 0x00	; 0
    1158:	90 e0       	ldi	r25, 0x00	; 0
    115a:	0e 94 2a 07 	call	0xe54	; 0xe54 <st7735_fill_screen>
					state_just_changed = false;
    115e:	d0 e0       	ldi	r29, 0x00	; 0
    1160:	da cf       	rjmp	.-76     	; 0x1116 <main+0x36>

00001162 <_ZL9draw_menuv>:
typedef enum { MENU_BTN_IDLE, MENU_BTN_WAIT_DEBOUNCE, MENU_BTN_WAIT_RELEASE } MenuButtonState;
static MenuButtonState btn_state = MENU_BTN_IDLE;
static SoftwareTimer* menuBtnTimer;

// Funkce pro kompletnГӯ (nebo ДҚГЎsteДҚnГ©) pЕҷekreslenГӯ menu
static void draw_menu() {
    1162:	ef 92       	push	r14
    1164:	ff 92       	push	r15
    1166:	0f 93       	push	r16
    1168:	1f 93       	push	r17
    116a:	cf 93       	push	r28
    116c:	df 93       	push	r29
    // VykreslГӯme nadpis
    draw_string(20, 10, "SKUPRA WARS", 0xF800, 0xFFFF); // PЕҷГӯklad: ДҚervenГҪ text na bГӯlГ©m
    116e:	0f ef       	ldi	r16, 0xFF	; 255
    1170:	1f ef       	ldi	r17, 0xFF	; 255
    1172:	20 e0       	ldi	r18, 0x00	; 0
    1174:	38 ef       	ldi	r19, 0xF8	; 248
    1176:	48 e0       	ldi	r20, 0x08	; 8
    1178:	51 e0       	ldi	r21, 0x01	; 1
    117a:	6a e0       	ldi	r22, 0x0A	; 10
    117c:	70 e0       	ldi	r23, 0x00	; 0
    117e:	84 e1       	ldi	r24, 0x14	; 20
    1180:	90 e0       	ldi	r25, 0x00	; 0
    1182:	0e 94 81 05 	call	0xb02	; 0xb02 <_Z11draw_stringiiPKcjj>
    
    // VykreslГӯme poloЕҫky
    for (int i = 0; i < NUM_ITEMS; i++) {
    1186:	e1 2c       	mov	r14, r1
    1188:	f1 2c       	mov	r15, r1
    118a:	83 e0       	ldi	r24, 0x03	; 3
    118c:	e8 16       	cp	r14, r24
    118e:	f1 04       	cpc	r15, r1
    1190:	0c f0       	brlt	.+2      	; 0x1194 <_ZL9draw_menuv+0x32>
    1192:	47 c0       	rjmp	.+142    	; 0x1222 <_ZL9draw_menuv+0xc0>
        uint8_t y_pos = 50 + (i * 20); // KaЕҫdГЎ poloЕҫka je o 20 pixelЕҜ nГӯЕҫ
    1194:	ce 2d       	mov	r28, r14
    1196:	cc 0f       	add	r28, r28
    1198:	cc 0f       	add	r28, r28
    119a:	8c 2f       	mov	r24, r28
    119c:	88 0f       	add	r24, r24
    119e:	88 0f       	add	r24, r24
    11a0:	c8 0f       	add	r28, r24
    11a2:	ce 5c       	subi	r28, 0xCE	; 206
        
        if (i == selected_item) {
    11a4:	80 91 b7 02 	lds	r24, 0x02B7	; 0x8002b7 <_ZL13selected_item>
    11a8:	90 e0       	ldi	r25, 0x00	; 0
    11aa:	e8 16       	cp	r14, r24
    11ac:	f9 06       	cpc	r15, r25
    11ae:	d9 f4       	brne	.+54     	; 0x11e6 <_ZL9draw_menuv+0x84>
            // ZvГҪraznДӣnГЎ poloЕҫka (napЕҷ. inverznГӯ barvy nebo pЕҷidГЎme ЕЎipku ">")
            draw_string(10, y_pos, ">", 0x0000, 0xFFFF);
    11b0:	d0 e0       	ldi	r29, 0x00	; 0
    11b2:	0f ef       	ldi	r16, 0xFF	; 255
    11b4:	1f ef       	ldi	r17, 0xFF	; 255
    11b6:	20 e0       	ldi	r18, 0x00	; 0
    11b8:	30 e0       	ldi	r19, 0x00	; 0
    11ba:	44 e1       	ldi	r20, 0x14	; 20
    11bc:	51 e0       	ldi	r21, 0x01	; 1
    11be:	be 01       	movw	r22, r28
    11c0:	8a e0       	ldi	r24, 0x0A	; 10
    11c2:	90 e0       	ldi	r25, 0x00	; 0
    11c4:	0e 94 81 05 	call	0xb02	; 0xb02 <_Z11draw_stringiiPKcjj>
            draw_string(25, y_pos, MENU_ITEMS[i], 0x001F, 0xFFFF); // ModrГЎ barva
    11c8:	f7 01       	movw	r30, r14
    11ca:	ee 0f       	add	r30, r30
    11cc:	ff 1f       	adc	r31, r31
    11ce:	ee 5f       	subi	r30, 0xFE	; 254
    11d0:	fe 4f       	sbci	r31, 0xFE	; 254
    11d2:	40 81       	ld	r20, Z
    11d4:	51 81       	ldd	r21, Z+1	; 0x01
    11d6:	2f e1       	ldi	r18, 0x1F	; 31
    11d8:	30 e0       	ldi	r19, 0x00	; 0
    11da:	be 01       	movw	r22, r28
    11dc:	89 e1       	ldi	r24, 0x19	; 25
    11de:	90 e0       	ldi	r25, 0x00	; 0
    11e0:	0e 94 81 05 	call	0xb02	; 0xb02 <_Z11draw_stringiiPKcjj>
    11e4:	1a c0       	rjmp	.+52     	; 0x121a <_ZL9draw_menuv+0xb8>
        } else {
            // NormГЎlnГӯ poloЕҫka
            draw_string(10, y_pos, " ", 0xFFFF, 0xFFFF); // SmazГЎnГӯ ЕЎipky
    11e6:	d0 e0       	ldi	r29, 0x00	; 0
    11e8:	0f ef       	ldi	r16, 0xFF	; 255
    11ea:	1f ef       	ldi	r17, 0xFF	; 255
    11ec:	2f ef       	ldi	r18, 0xFF	; 255
    11ee:	3f ef       	ldi	r19, 0xFF	; 255
    11f0:	46 e1       	ldi	r20, 0x16	; 22
    11f2:	51 e0       	ldi	r21, 0x01	; 1
    11f4:	be 01       	movw	r22, r28
    11f6:	8a e0       	ldi	r24, 0x0A	; 10
    11f8:	90 e0       	ldi	r25, 0x00	; 0
    11fa:	0e 94 81 05 	call	0xb02	; 0xb02 <_Z11draw_stringiiPKcjj>
            draw_string(25, y_pos, MENU_ITEMS[i], 0x0000, 0xFFFF); // ДҢernГЎ barva
    11fe:	f7 01       	movw	r30, r14
    1200:	ee 0f       	add	r30, r30
    1202:	ff 1f       	adc	r31, r31
    1204:	ee 5f       	subi	r30, 0xFE	; 254
    1206:	fe 4f       	sbci	r31, 0xFE	; 254
    1208:	40 81       	ld	r20, Z
    120a:	51 81       	ldd	r21, Z+1	; 0x01
    120c:	20 e0       	ldi	r18, 0x00	; 0
    120e:	30 e0       	ldi	r19, 0x00	; 0
    1210:	be 01       	movw	r22, r28
    1212:	89 e1       	ldi	r24, 0x19	; 25
    1214:	90 e0       	ldi	r25, 0x00	; 0
    1216:	0e 94 81 05 	call	0xb02	; 0xb02 <_Z11draw_stringiiPKcjj>
static void draw_menu() {
    // VykreslГӯme nadpis
    draw_string(20, 10, "SKUPRA WARS", 0xF800, 0xFFFF); // PЕҷГӯklad: ДҚervenГҪ text na bГӯlГ©m
    
    // VykreslГӯme poloЕҫky
    for (int i = 0; i < NUM_ITEMS; i++) {
    121a:	8f ef       	ldi	r24, 0xFF	; 255
    121c:	e8 1a       	sub	r14, r24
    121e:	f8 0a       	sbc	r15, r24
    1220:	b4 cf       	rjmp	.-152    	; 0x118a <_ZL9draw_menuv+0x28>
            // NormГЎlnГӯ poloЕҫka
            draw_string(10, y_pos, " ", 0xFFFF, 0xFFFF); // SmazГЎnГӯ ЕЎipky
            draw_string(25, y_pos, MENU_ITEMS[i], 0x0000, 0xFFFF); // ДҢernГЎ barva
        }
    }
}
    1222:	df 91       	pop	r29
    1224:	cf 91       	pop	r28
    1226:	1f 91       	pop	r17
    1228:	0f 91       	pop	r16
    122a:	ff 90       	pop	r15
    122c:	ef 90       	pop	r14
    122e:	08 95       	ret

00001230 <_Z9menu_initv>:

void menu_init(void) {
    menuBtnTimer = SoftwareTimerPool::acquireTimer();
    1230:	0e 94 bf 11 	call	0x237e	; 0x237e <_ZN17SoftwareTimerPool12acquireTimerEv>
    1234:	90 93 b4 02 	sts	0x02B4, r25	; 0x8002b4 <_ZL12menuBtnTimer+0x1>
    1238:	80 93 b3 02 	sts	0x02B3, r24	; 0x8002b3 <_ZL12menuBtnTimer>
    selected_item = 0;
    123c:	10 92 b7 02 	sts	0x02B7, r1	; 0x8002b7 <_ZL13selected_item>
    last_enc_A = (PIND & (1 << PD2)) >> PD2;
    1240:	89 b1       	in	r24, 0x09	; 9
    1242:	84 70       	andi	r24, 0x04	; 4
    1244:	90 e0       	ldi	r25, 0x00	; 0
    1246:	95 95       	asr	r25
    1248:	87 95       	ror	r24
    124a:	95 95       	asr	r25
    124c:	87 95       	ror	r24
    124e:	80 93 b6 02 	sts	0x02B6, r24	; 0x8002b6 <_ZL10last_enc_A>
    
    st7735_fill_screen(0xFFFF); // BГӯlГ© pozadГӯ
    1252:	8f ef       	ldi	r24, 0xFF	; 255
    1254:	9f ef       	ldi	r25, 0xFF	; 255
    1256:	0e 94 2a 07 	call	0xe54	; 0xe54 <st7735_fill_screen>
    draw_menu();
    125a:	0e 94 b1 08 	call	0x1162	; 0x1162 <_ZL9draw_menuv>
    125e:	08 95       	ret

00001260 <_Z9menu_tickv>:
}

GameState menu_tick(void) {
    1260:	cf 93       	push	r28
    1262:	df 93       	push	r29
    // --- 1. ДҢTENГҚ ENKODГүRU (SCROLLOVГҒNГҚ) ---
    uint8_t current_enc_A = (PIND & (1 << PD2)) >> PD2;
    1264:	c9 b1       	in	r28, 0x09	; 9
    1266:	c4 70       	andi	r28, 0x04	; 4
    1268:	d0 e0       	ldi	r29, 0x00	; 0
    126a:	d5 95       	asr	r29
    126c:	c7 95       	ror	r28
    126e:	d5 95       	asr	r29
    1270:	c7 95       	ror	r28

    if (current_enc_A != last_enc_A) {
    1272:	90 91 b6 02 	lds	r25, 0x02B6	; 0x8002b6 <_ZL10last_enc_A>
    1276:	c9 17       	cp	r28, r25
    1278:	11 f1       	breq	.+68     	; 0x12be <_Z9menu_tickv+0x5e>
        if (current_enc_A == 0) {
    127a:	c1 11       	cpse	r28, r1
    127c:	1e c0       	rjmp	.+60     	; 0x12ba <_Z9menu_tickv+0x5a>
            uint8_t current_enc_B = (PIND & (1 << PD3)) >> PD3;
    127e:	29 b1       	in	r18, 0x09	; 9
    1280:	28 70       	andi	r18, 0x08	; 8
    1282:	30 e0       	ldi	r19, 0x00	; 0
    1284:	35 95       	asr	r19
    1286:	27 95       	ror	r18
    1288:	35 95       	asr	r19
    128a:	27 95       	ror	r18
    128c:	35 95       	asr	r19
    128e:	27 95       	ror	r18
            
            if (current_enc_B != current_enc_A) {
    1290:	c2 17       	cp	r28, r18
    1292:	51 f0       	breq	.+20     	; 0x12a8 <_Z9menu_tickv+0x48>
                // ScrollovГЎnГӯ nahoru
                if (selected_item > 0) {
    1294:	80 91 b7 02 	lds	r24, 0x02B7	; 0x8002b7 <_ZL13selected_item>
    1298:	88 23       	and	r24, r24
    129a:	79 f0       	breq	.+30     	; 0x12ba <_Z9menu_tickv+0x5a>
                    selected_item--;
    129c:	81 50       	subi	r24, 0x01	; 1
    129e:	80 93 b7 02 	sts	0x02B7, r24	; 0x8002b7 <_ZL13selected_item>
                    draw_menu(); // PЕҷekreslГӯme zmДӣnu
    12a2:	0e 94 b1 08 	call	0x1162	; 0x1162 <_ZL9draw_menuv>
    12a6:	09 c0       	rjmp	.+18     	; 0x12ba <_Z9menu_tickv+0x5a>
                }
            } else {
                // ScrollovГЎnГӯ dolЕҜ
                if (selected_item < NUM_ITEMS - 1) {
    12a8:	80 91 b7 02 	lds	r24, 0x02B7	; 0x8002b7 <_ZL13selected_item>
    12ac:	82 30       	cpi	r24, 0x02	; 2
    12ae:	28 f4       	brcc	.+10     	; 0x12ba <_Z9menu_tickv+0x5a>
                    selected_item++;
    12b0:	8f 5f       	subi	r24, 0xFF	; 255
    12b2:	80 93 b7 02 	sts	0x02B7, r24	; 0x8002b7 <_ZL13selected_item>
                    draw_menu(); // PЕҷekreslГӯme zmДӣnu
    12b6:	0e 94 b1 08 	call	0x1162	; 0x1162 <_ZL9draw_menuv>
                }
            }
        }
        last_enc_A = current_enc_A;
    12ba:	c0 93 b6 02 	sts	0x02B6, r28	; 0x8002b6 <_ZL10last_enc_A>
    }
    
    // --- 2. ДҢTENГҚ TLAДҢГҚTKA (POTVRZENГҚ) ---
    switch (btn_state) {
    12be:	80 91 b5 02 	lds	r24, 0x02B5	; 0x8002b5 <_ZL9btn_state>
    12c2:	81 30       	cpi	r24, 0x01	; 1
    12c4:	a9 f0       	breq	.+42     	; 0x12f0 <_Z9menu_tickv+0x90>
    12c6:	18 f0       	brcs	.+6      	; 0x12ce <_Z9menu_tickv+0x6e>
    12c8:	82 30       	cpi	r24, 0x02	; 2
    12ca:	81 f1       	breq	.+96     	; 0x132c <_Z9menu_tickv+0xcc>
    12cc:	35 c0       	rjmp	.+106    	; 0x1338 <_Z9menu_tickv+0xd8>
        case MENU_BTN_IDLE:
            if (!(PIND & (1 << PD5))) {
    12ce:	4d 99       	sbic	0x09, 5	; 9
    12d0:	35 c0       	rjmp	.+106    	; 0x133c <_Z9menu_tickv+0xdc>
                menuBtnTimer->startTimerUs(50000); // 50ms debounce
    12d2:	40 e5       	ldi	r20, 0x50	; 80
    12d4:	53 ec       	ldi	r21, 0xC3	; 195
    12d6:	60 e0       	ldi	r22, 0x00	; 0
    12d8:	70 e0       	ldi	r23, 0x00	; 0
    12da:	80 91 b3 02 	lds	r24, 0x02B3	; 0x8002b3 <_ZL12menuBtnTimer>
    12de:	90 91 b4 02 	lds	r25, 0x02B4	; 0x8002b4 <_ZL12menuBtnTimer+0x1>
    12e2:	0e 94 31 12 	call	0x2462	; 0x2462 <_ZN13SoftwareTimer12startTimerUsEm>
                btn_state = MENU_BTN_WAIT_DEBOUNCE;
    12e6:	81 e0       	ldi	r24, 0x01	; 1
    12e8:	80 93 b5 02 	sts	0x02B5, r24	; 0x8002b5 <_ZL9btn_state>
                btn_state = MENU_BTN_IDLE;
            }
            break;
    }
	
	return STATE_MENU; // Pokud se nic nezmДӣnilo, zЕҜstГЎvГЎme v menu
    12ec:	80 e0       	ldi	r24, 0x00	; 0
    12ee:	2b c0       	rjmp	.+86     	; 0x1346 <_Z9menu_tickv+0xe6>
                btn_state = MENU_BTN_WAIT_DEBOUNCE;
            }
            break;

        case MENU_BTN_WAIT_DEBOUNCE:
            if (menuBtnTimer->isDone()) {
    12f0:	80 91 b3 02 	lds	r24, 0x02B3	; 0x8002b3 <_ZL12menuBtnTimer>
    12f4:	90 91 b4 02 	lds	r25, 0x02B4	; 0x8002b4 <_ZL12menuBtnTimer+0x1>
    12f8:	0e 94 37 12 	call	0x246e	; 0x246e <_ZN13SoftwareTimer6isDoneEv>
    12fc:	88 23       	and	r24, r24
    12fe:	01 f1       	breq	.+64     	; 0x1340 <_Z9menu_tickv+0xe0>
                if (!(PIND & (1 << PD5))) {
    1300:	4d 99       	sbic	0x09, 5	; 9
    1302:	10 c0       	rjmp	.+32     	; 0x1324 <_Z9menu_tickv+0xc4>
                    
                    if (selected_item == 0) { // Kliknuto na "PRIPOJIT"
    1304:	80 91 b7 02 	lds	r24, 0x02B7	; 0x8002b7 <_ZL13selected_item>
    1308:	81 11       	cpse	r24, r1
    130a:	07 c0       	rjmp	.+14     	; 0x131a <_Z9menu_tickv+0xba>
	                    gameplay_init();      // NeЕҫ pЕҷepneme, nastavГӯme hru do vГҪchozГӯho stavu
    130c:	0e 94 5d 01 	call	0x2ba	; 0x2ba <_Z13gameplay_initv>
	                    btn_state = MENU_BTN_WAIT_RELEASE;
    1310:	82 e0       	ldi	r24, 0x02	; 2
    1312:	80 93 b5 02 	sts	0x02B5, r24	; 0x8002b5 <_ZL9btn_state>
	                    return STATE_GAMEPLAY; 
    1316:	81 e0       	ldi	r24, 0x01	; 1
    1318:	16 c0       	rjmp	.+44     	; 0x1346 <_Z9menu_tickv+0xe6>
                    }
                    
                    btn_state = MENU_BTN_WAIT_RELEASE;
    131a:	82 e0       	ldi	r24, 0x02	; 2
    131c:	80 93 b5 02 	sts	0x02B5, r24	; 0x8002b5 <_ZL9btn_state>
                btn_state = MENU_BTN_IDLE;
            }
            break;
    }
	
	return STATE_MENU; // Pokud se nic nezmДӣnilo, zЕҜstГЎvГЎme v menu
    1320:	80 e0       	ldi	r24, 0x00	; 0
    1322:	11 c0       	rjmp	.+34     	; 0x1346 <_Z9menu_tickv+0xe6>
	                    return STATE_GAMEPLAY; 
                    }
                    
                    btn_state = MENU_BTN_WAIT_RELEASE;
                } else {
                    btn_state = MENU_BTN_IDLE;
    1324:	10 92 b5 02 	sts	0x02B5, r1	; 0x8002b5 <_ZL9btn_state>
                btn_state = MENU_BTN_IDLE;
            }
            break;
    }
	
	return STATE_MENU; // Pokud se nic nezmДӣnilo, zЕҜstГЎvГЎme v menu
    1328:	80 e0       	ldi	r24, 0x00	; 0
    132a:	0d c0       	rjmp	.+26     	; 0x1346 <_Z9menu_tickv+0xe6>
                }
            }
            break;

        case MENU_BTN_WAIT_RELEASE:
            if (PIND & (1 << PD5)) {
    132c:	4d 9b       	sbis	0x09, 5	; 9
    132e:	0a c0       	rjmp	.+20     	; 0x1344 <_Z9menu_tickv+0xe4>
                btn_state = MENU_BTN_IDLE;
    1330:	10 92 b5 02 	sts	0x02B5, r1	; 0x8002b5 <_ZL9btn_state>
            }
            break;
    }
	
	return STATE_MENU; // Pokud se nic nezmДӣnilo, zЕҜstГЎvГЎme v menu
    1334:	80 e0       	ldi	r24, 0x00	; 0
    1336:	07 c0       	rjmp	.+14     	; 0x1346 <_Z9menu_tickv+0xe6>
    1338:	80 e0       	ldi	r24, 0x00	; 0
    133a:	05 c0       	rjmp	.+10     	; 0x1346 <_Z9menu_tickv+0xe6>
    133c:	80 e0       	ldi	r24, 0x00	; 0
    133e:	03 c0       	rjmp	.+6      	; 0x1346 <_Z9menu_tickv+0xe6>
    1340:	80 e0       	ldi	r24, 0x00	; 0
    1342:	01 c0       	rjmp	.+2      	; 0x1346 <_Z9menu_tickv+0xe6>
    1344:	80 e0       	ldi	r24, 0x00	; 0
    1346:	df 91       	pop	r29
    1348:	cf 91       	pop	r28
    134a:	08 95       	ret

0000134c <_Z41__static_initialization_and_destruction_0ii>:
	melodyList[alorsOnDanse].addTone(dS, 210);
	melodyList[alorsOnDanse].addTone(none, 20);
	melodyList[alorsOnDanse].addTone(d, 210);
	melodyList[alorsOnDanse].addTone(none, 20);
    
    134c:	01 97       	sbiw	r24, 0x01	; 1
    134e:	b1 f5       	brne	.+108    	; 0x13bc <_Z41__static_initialization_and_destruction_0ii+0x70>
    1350:	6f 3f       	cpi	r22, 0xFF	; 255
    1352:	7f 4f       	sbci	r23, 0xFF	; 255
    1354:	99 f5       	brne	.+102    	; 0x13bc <_Z41__static_initialization_and_destruction_0ii+0x70>
    1356:	25 e0       	ldi	r18, 0x05	; 5
    1358:	30 e0       	ldi	r19, 0x00	; 0
    135a:	e4 ec       	ldi	r30, 0xC4	; 196
    135c:	f4 e0       	ldi	r31, 0x04	; 4
#include "Soundboard.hpp"

// Definice polн pro zvuky a melodie
Sound4 Soundboard::soundList[soundNum] = {};
    135e:	2f 3f       	cpi	r18, 0xFF	; 255
    1360:	8f ef       	ldi	r24, 0xFF	; 255
    1362:	38 07       	cpc	r19, r24
    1364:	89 f0       	breq	.+34     	; 0x1388 <_Z41__static_initialization_and_destruction_0ii+0x3c>
    1366:	8b e2       	ldi	r24, 0x2B	; 43
    1368:	df 01       	movw	r26, r30
    136a:	1d 92       	st	X+, r1
    136c:	8a 95       	dec	r24
    136e:	e9 f7       	brne	.-6      	; 0x136a <_Z41__static_initialization_and_destruction_0ii+0x1e>
        }
        return &(toneList[iterator++]);
    }

    public:
    Sound() = default;  
    1370:	89 e0       	ldi	r24, 0x09	; 9
    1372:	90 e0       	ldi	r25, 0x00	; 0
    1374:	8f 3f       	cpi	r24, 0xFF	; 255
    1376:	bf ef       	ldi	r27, 0xFF	; 255
    1378:	9b 07       	cpc	r25, r27
    137a:	11 f0       	breq	.+4      	; 0x1380 <_Z41__static_initialization_and_destruction_0ii+0x34>
    137c:	01 97       	sbiw	r24, 0x01	; 1
    137e:	fa cf       	rjmp	.-12     	; 0x1374 <_Z41__static_initialization_and_destruction_0ii+0x28>
    1380:	bb 96       	adiw	r30, 0x2b	; 43
    1382:	21 50       	subi	r18, 0x01	; 1
    1384:	31 09       	sbc	r19, r1
    1386:	eb cf       	rjmp	.-42     	; 0x135e <_Z41__static_initialization_and_destruction_0ii+0x12>
    1388:	23 e0       	ldi	r18, 0x03	; 3
    138a:	30 e0       	ldi	r19, 0x00	; 0
    138c:	e8 eb       	ldi	r30, 0xB8	; 184
    138e:	f2 e0       	ldi	r31, 0x02	; 2
Melody Soundboard::melodyList[melodyNum] = {};
    1390:	2f 3f       	cpi	r18, 0xFF	; 255
    1392:	4f ef       	ldi	r20, 0xFF	; 255
    1394:	34 07       	cpc	r19, r20
    1396:	91 f0       	breq	.+36     	; 0x13bc <_Z41__static_initialization_and_destruction_0ii+0x70>
    1398:	83 e8       	ldi	r24, 0x83	; 131
    139a:	df 01       	movw	r26, r30
    139c:	1d 92       	st	X+, r1
    139e:	8a 95       	dec	r24
    13a0:	e9 f7       	brne	.-6      	; 0x139c <_Z41__static_initialization_and_destruction_0ii+0x50>
    13a2:	8f e1       	ldi	r24, 0x1F	; 31
    13a4:	90 e0       	ldi	r25, 0x00	; 0
    13a6:	8f 3f       	cpi	r24, 0xFF	; 255
    13a8:	bf ef       	ldi	r27, 0xFF	; 255
    13aa:	9b 07       	cpc	r25, r27
    13ac:	11 f0       	breq	.+4      	; 0x13b2 <_Z41__static_initialization_and_destruction_0ii+0x66>
    13ae:	01 97       	sbiw	r24, 0x01	; 1
    13b0:	fa cf       	rjmp	.-12     	; 0x13a6 <_Z41__static_initialization_and_destruction_0ii+0x5a>
    13b2:	ed 57       	subi	r30, 0x7D	; 125
    13b4:	ff 4f       	sbci	r31, 0xFF	; 255
    13b6:	21 50       	subi	r18, 0x01	; 1
    13b8:	31 09       	sbc	r19, r1
    13ba:	ea cf       	rjmp	.-44     	; 0x1390 <_Z41__static_initialization_and_destruction_0ii+0x44>
    13bc:	08 95       	ret

000013be <_ZN10Soundboard12initPlaylistEv>:
     * @param duration Duration of tone in milliseconds
     * 
     * @return False if sound is full, true otherwise.
     */
    bool addTone(tone singleTone, uint16_t toneDuration){
        if (toneNum < soundLength && finished == false){
    13be:	80 91 98 05 	lds	r24, 0x0598	; 0x800598 <_ZN10Soundboard9soundListE+0xd4>
    13c2:	8a 30       	cpi	r24, 0x0A	; 10
    13c4:	b8 f4       	brcc	.+46     	; 0x13f4 <_ZN10Soundboard12initPlaylistEv+0x36>
    13c6:	90 91 99 05 	lds	r25, 0x0599	; 0x800599 <_ZN10Soundboard9soundListE+0xd5>
    13ca:	91 11       	cpse	r25, r1
    13cc:	13 c0       	rjmp	.+38     	; 0x13f4 <_ZN10Soundboard12initPlaylistEv+0x36>
            toneList[toneNum] = toneRecord(singleTone, toneDuration);
    13ce:	e8 2f       	mov	r30, r24
    13d0:	f0 e0       	ldi	r31, 0x00	; 0
    13d2:	ee 0f       	add	r30, r30
    13d4:	ff 1f       	adc	r31, r31
    13d6:	ee 0f       	add	r30, r30
    13d8:	ff 1f       	adc	r31, r31
    13da:	e0 59       	subi	r30, 0x90	; 144
    13dc:	fa 4f       	sbci	r31, 0xFA	; 250
    13de:	48 eb       	ldi	r20, 0xB8	; 184
    13e0:	51 e0       	ldi	r21, 0x01	; 1
    13e2:	68 ee       	ldi	r22, 0xE8	; 232
    13e4:	73 e0       	ldi	r23, 0x03	; 3
    13e6:	40 83       	st	Z, r20
    13e8:	51 83       	std	Z+1, r21	; 0x01
    13ea:	62 83       	std	Z+2, r22	; 0x02
    13ec:	73 83       	std	Z+3, r23	; 0x03
            toneNum++;
    13ee:	8f 5f       	subi	r24, 0xFF	; 255
    13f0:	80 93 98 05 	sts	0x0598, r24	; 0x800598 <_ZN10Soundboard9soundListE+0xd4>
     * @param duration Duration of tone in milliseconds
     * 
     * @return False if sound is full, true otherwise.
     */
    bool addTone(tone singleTone, uint16_t toneDuration){
        if (toneNum < soundLength && finished == false){
    13f4:	80 91 98 05 	lds	r24, 0x0598	; 0x800598 <_ZN10Soundboard9soundListE+0xd4>
    13f8:	8a 30       	cpi	r24, 0x0A	; 10
    13fa:	b8 f4       	brcc	.+46     	; 0x142a <_ZN10Soundboard12initPlaylistEv+0x6c>
    13fc:	90 91 99 05 	lds	r25, 0x0599	; 0x800599 <_ZN10Soundboard9soundListE+0xd5>
    1400:	91 11       	cpse	r25, r1
    1402:	13 c0       	rjmp	.+38     	; 0x142a <_ZN10Soundboard12initPlaylistEv+0x6c>
            toneList[toneNum] = toneRecord(singleTone, toneDuration);
    1404:	e8 2f       	mov	r30, r24
    1406:	f0 e0       	ldi	r31, 0x00	; 0
    1408:	ee 0f       	add	r30, r30
    140a:	ff 1f       	adc	r31, r31
    140c:	ee 0f       	add	r30, r30
    140e:	ff 1f       	adc	r31, r31
    1410:	e0 59       	subi	r30, 0x90	; 144
    1412:	fa 4f       	sbci	r31, 0xFA	; 250
    1414:	40 e1       	ldi	r20, 0x10	; 16
    1416:	53 e0       	ldi	r21, 0x03	; 3
    1418:	68 ee       	ldi	r22, 0xE8	; 232
    141a:	73 e0       	ldi	r23, 0x03	; 3
    141c:	40 83       	st	Z, r20
    141e:	51 83       	std	Z+1, r21	; 0x01
    1420:	62 83       	std	Z+2, r22	; 0x02
    1422:	73 83       	std	Z+3, r23	; 0x03
            toneNum++;
    1424:	8f 5f       	subi	r24, 0xFF	; 255
    1426:	80 93 98 05 	sts	0x0598, r24	; 0x800598 <_ZN10Soundboard9soundListE+0xd4>
     * @param duration Duration of tone in milliseconds
     * 
     * @return False if sound is full, true otherwise.
     */
    bool addTone(tone singleTone, uint16_t toneDuration){
        if (toneNum < soundLength && finished == false){
    142a:	80 91 98 05 	lds	r24, 0x0598	; 0x800598 <_ZN10Soundboard9soundListE+0xd4>
    142e:	8a 30       	cpi	r24, 0x0A	; 10
    1430:	b8 f4       	brcc	.+46     	; 0x1460 <_ZN10Soundboard12initPlaylistEv+0xa2>
    1432:	90 91 99 05 	lds	r25, 0x0599	; 0x800599 <_ZN10Soundboard9soundListE+0xd5>
    1436:	91 11       	cpse	r25, r1
    1438:	13 c0       	rjmp	.+38     	; 0x1460 <_ZN10Soundboard12initPlaylistEv+0xa2>
            toneList[toneNum] = toneRecord(singleTone, toneDuration);
    143a:	e8 2f       	mov	r30, r24
    143c:	f0 e0       	ldi	r31, 0x00	; 0
    143e:	ee 0f       	add	r30, r30
    1440:	ff 1f       	adc	r31, r31
    1442:	ee 0f       	add	r30, r30
    1444:	ff 1f       	adc	r31, r31
    1446:	e0 59       	subi	r30, 0x90	; 144
    1448:	fa 4f       	sbci	r31, 0xFA	; 250
    144a:	40 e7       	ldi	r20, 0x70	; 112
    144c:	53 e0       	ldi	r21, 0x03	; 3
    144e:	68 ee       	ldi	r22, 0xE8	; 232
    1450:	73 e0       	ldi	r23, 0x03	; 3
    1452:	40 83       	st	Z, r20
    1454:	51 83       	std	Z+1, r21	; 0x01
    1456:	62 83       	std	Z+2, r22	; 0x02
    1458:	73 83       	std	Z+3, r23	; 0x03
            toneNum++;
    145a:	8f 5f       	subi	r24, 0xFF	; 255
    145c:	80 93 98 05 	sts	0x0598, r24	; 0x800598 <_ZN10Soundboard9soundListE+0xd4>
     * @param duration Duration of tone in milliseconds
     * 
     * @return False if sound is full, true otherwise.
     */
    bool addTone(tone singleTone, uint16_t toneDuration){
        if (toneNum < soundLength && finished == false){
    1460:	80 91 ec 04 	lds	r24, 0x04EC	; 0x8004ec <_ZN10Soundboard9soundListE+0x28>
    1464:	8a 30       	cpi	r24, 0x0A	; 10
    1466:	b8 f4       	brcc	.+46     	; 0x1496 <_ZN10Soundboard12initPlaylistEv+0xd8>
    1468:	90 91 ed 04 	lds	r25, 0x04ED	; 0x8004ed <_ZN10Soundboard9soundListE+0x29>
    146c:	91 11       	cpse	r25, r1
    146e:	13 c0       	rjmp	.+38     	; 0x1496 <_ZN10Soundboard12initPlaylistEv+0xd8>
            toneList[toneNum] = toneRecord(singleTone, toneDuration);
    1470:	e8 2f       	mov	r30, r24
    1472:	f0 e0       	ldi	r31, 0x00	; 0
    1474:	ee 0f       	add	r30, r30
    1476:	ff 1f       	adc	r31, r31
    1478:	ee 0f       	add	r30, r30
    147a:	ff 1f       	adc	r31, r31
    147c:	ec 53       	subi	r30, 0x3C	; 60
    147e:	fb 4f       	sbci	r31, 0xFB	; 251
    1480:	40 e7       	ldi	r20, 0x70	; 112
    1482:	53 e0       	ldi	r21, 0x03	; 3
    1484:	6e e1       	ldi	r22, 0x1E	; 30
    1486:	70 e0       	ldi	r23, 0x00	; 0
    1488:	40 83       	st	Z, r20
    148a:	51 83       	std	Z+1, r21	; 0x01
    148c:	62 83       	std	Z+2, r22	; 0x02
    148e:	73 83       	std	Z+3, r23	; 0x03
            toneNum++;
    1490:	8f 5f       	subi	r24, 0xFF	; 255
    1492:	80 93 ec 04 	sts	0x04EC, r24	; 0x8004ec <_ZN10Soundboard9soundListE+0x28>
     * @param duration Duration of tone in milliseconds
     * 
     * @return False if sound is full, true otherwise.
     */
    bool addTone(tone singleTone, uint16_t toneDuration){
        if (toneNum < soundLength && finished == false){
    1496:	80 91 ec 04 	lds	r24, 0x04EC	; 0x8004ec <_ZN10Soundboard9soundListE+0x28>
    149a:	8a 30       	cpi	r24, 0x0A	; 10
    149c:	b8 f4       	brcc	.+46     	; 0x14cc <_ZN10Soundboard12initPlaylistEv+0x10e>
    149e:	90 91 ed 04 	lds	r25, 0x04ED	; 0x8004ed <_ZN10Soundboard9soundListE+0x29>
    14a2:	91 11       	cpse	r25, r1
    14a4:	13 c0       	rjmp	.+38     	; 0x14cc <_ZN10Soundboard12initPlaylistEv+0x10e>
            toneList[toneNum] = toneRecord(singleTone, toneDuration);
    14a6:	e8 2f       	mov	r30, r24
    14a8:	f0 e0       	ldi	r31, 0x00	; 0
    14aa:	ee 0f       	add	r30, r30
    14ac:	ff 1f       	adc	r31, r31
    14ae:	ee 0f       	add	r30, r30
    14b0:	ff 1f       	adc	r31, r31
    14b2:	ec 53       	subi	r30, 0x3C	; 60
    14b4:	fb 4f       	sbci	r31, 0xFB	; 251
    14b6:	4a eb       	ldi	r20, 0xBA	; 186
    14b8:	52 e0       	ldi	r21, 0x02	; 2
    14ba:	68 e2       	ldi	r22, 0x28	; 40
    14bc:	70 e0       	ldi	r23, 0x00	; 0
    14be:	40 83       	st	Z, r20
    14c0:	51 83       	std	Z+1, r21	; 0x01
    14c2:	62 83       	std	Z+2, r22	; 0x02
    14c4:	73 83       	std	Z+3, r23	; 0x03
            toneNum++;
    14c6:	8f 5f       	subi	r24, 0xFF	; 255
    14c8:	80 93 ec 04 	sts	0x04EC, r24	; 0x8004ec <_ZN10Soundboard9soundListE+0x28>
     * @param duration Duration of tone in milliseconds
     * 
     * @return False if sound is full, true otherwise.
     */
    bool addTone(tone singleTone, uint16_t toneDuration){
        if (toneNum < soundLength && finished == false){
    14cc:	80 91 ec 04 	lds	r24, 0x04EC	; 0x8004ec <_ZN10Soundboard9soundListE+0x28>
    14d0:	8a 30       	cpi	r24, 0x0A	; 10
    14d2:	b8 f4       	brcc	.+46     	; 0x1502 <_ZN10Soundboard12initPlaylistEv+0x144>
    14d4:	90 91 ed 04 	lds	r25, 0x04ED	; 0x8004ed <_ZN10Soundboard9soundListE+0x29>
    14d8:	91 11       	cpse	r25, r1
    14da:	13 c0       	rjmp	.+38     	; 0x1502 <_ZN10Soundboard12initPlaylistEv+0x144>
            toneList[toneNum] = toneRecord(singleTone, toneDuration);
    14dc:	e8 2f       	mov	r30, r24
    14de:	f0 e0       	ldi	r31, 0x00	; 0
    14e0:	ee 0f       	add	r30, r30
    14e2:	ff 1f       	adc	r31, r31
    14e4:	ee 0f       	add	r30, r30
    14e6:	ff 1f       	adc	r31, r31
    14e8:	ec 53       	subi	r30, 0x3C	; 60
    14ea:	fb 4f       	sbci	r31, 0xFB	; 251
    14ec:	45 e0       	ldi	r20, 0x05	; 5
    14ee:	51 e0       	ldi	r21, 0x01	; 1
    14f0:	64 e1       	ldi	r22, 0x14	; 20
    14f2:	70 e0       	ldi	r23, 0x00	; 0
    14f4:	40 83       	st	Z, r20
    14f6:	51 83       	std	Z+1, r21	; 0x01
    14f8:	62 83       	std	Z+2, r22	; 0x02
    14fa:	73 83       	std	Z+3, r23	; 0x03
            toneNum++;
    14fc:	8f 5f       	subi	r24, 0xFF	; 255
    14fe:	80 93 ec 04 	sts	0x04EC, r24	; 0x8004ec <_ZN10Soundboard9soundListE+0x28>
     * @param duration Duration of tone in milliseconds
     * 
     * @return False if sound is full, true otherwise.
     */
    bool addTone(tone singleTone, uint16_t toneDuration){
        if (toneNum < soundLength && finished == false){
    1502:	80 91 17 05 	lds	r24, 0x0517	; 0x800517 <_ZN10Soundboard9soundListE+0x53>
    1506:	8a 30       	cpi	r24, 0x0A	; 10
    1508:	b8 f4       	brcc	.+46     	; 0x1538 <_ZN10Soundboard12initPlaylistEv+0x17a>
    150a:	90 91 18 05 	lds	r25, 0x0518	; 0x800518 <_ZN10Soundboard9soundListE+0x54>
    150e:	91 11       	cpse	r25, r1
    1510:	13 c0       	rjmp	.+38     	; 0x1538 <_ZN10Soundboard12initPlaylistEv+0x17a>
            toneList[toneNum] = toneRecord(singleTone, toneDuration);
    1512:	e8 2f       	mov	r30, r24
    1514:	f0 e0       	ldi	r31, 0x00	; 0
    1516:	ee 0f       	add	r30, r30
    1518:	ff 1f       	adc	r31, r31
    151a:	ee 0f       	add	r30, r30
    151c:	ff 1f       	adc	r31, r31
    151e:	ec 53       	subi	r30, 0x3C	; 60
    1520:	fb 4f       	sbci	r31, 0xFB	; 251
    1522:	4b e0       	ldi	r20, 0x0B	; 11
    1524:	52 e0       	ldi	r21, 0x02	; 2
    1526:	64 e1       	ldi	r22, 0x14	; 20
    1528:	70 e0       	ldi	r23, 0x00	; 0
    152a:	43 a7       	std	Z+43, r20	; 0x2b
    152c:	54 a7       	std	Z+44, r21	; 0x2c
    152e:	65 a7       	std	Z+45, r22	; 0x2d
    1530:	76 a7       	std	Z+46, r23	; 0x2e
            toneNum++;
    1532:	8f 5f       	subi	r24, 0xFF	; 255
    1534:	80 93 17 05 	sts	0x0517, r24	; 0x800517 <_ZN10Soundboard9soundListE+0x53>
     * @param duration Duration of tone in milliseconds
     * 
     * @return False if sound is full, true otherwise.
     */
    bool addTone(tone singleTone, uint16_t toneDuration){
        if (toneNum < soundLength && finished == false){
    1538:	80 91 17 05 	lds	r24, 0x0517	; 0x800517 <_ZN10Soundboard9soundListE+0x53>
    153c:	8a 30       	cpi	r24, 0x0A	; 10
    153e:	b8 f4       	brcc	.+46     	; 0x156e <_ZN10Soundboard12initPlaylistEv+0x1b0>
    1540:	90 91 18 05 	lds	r25, 0x0518	; 0x800518 <_ZN10Soundboard9soundListE+0x54>
    1544:	91 11       	cpse	r25, r1
    1546:	13 c0       	rjmp	.+38     	; 0x156e <_ZN10Soundboard12initPlaylistEv+0x1b0>
            toneList[toneNum] = toneRecord(singleTone, toneDuration);
    1548:	e8 2f       	mov	r30, r24
    154a:	f0 e0       	ldi	r31, 0x00	; 0
    154c:	ee 0f       	add	r30, r30
    154e:	ff 1f       	adc	r31, r31
    1550:	ee 0f       	add	r30, r30
    1552:	ff 1f       	adc	r31, r31
    1554:	ec 53       	subi	r30, 0x3C	; 60
    1556:	fb 4f       	sbci	r31, 0xFB	; 251
    1558:	40 e0       	ldi	r20, 0x00	; 0
    155a:	50 e0       	ldi	r21, 0x00	; 0
    155c:	64 e1       	ldi	r22, 0x14	; 20
    155e:	70 e0       	ldi	r23, 0x00	; 0
    1560:	43 a7       	std	Z+43, r20	; 0x2b
    1562:	54 a7       	std	Z+44, r21	; 0x2c
    1564:	65 a7       	std	Z+45, r22	; 0x2d
    1566:	76 a7       	std	Z+46, r23	; 0x2e
            toneNum++;
    1568:	8f 5f       	subi	r24, 0xFF	; 255
    156a:	80 93 17 05 	sts	0x0517, r24	; 0x800517 <_ZN10Soundboard9soundListE+0x53>
     * @param duration Duration of tone in milliseconds
     * 
     * @return False if sound is full, true otherwise.
     */
    bool addTone(tone singleTone, uint16_t toneDuration){
        if (toneNum < soundLength && finished == false){
    156e:	80 91 17 05 	lds	r24, 0x0517	; 0x800517 <_ZN10Soundboard9soundListE+0x53>
    1572:	8a 30       	cpi	r24, 0x0A	; 10
    1574:	b8 f4       	brcc	.+46     	; 0x15a4 <_ZN10Soundboard12initPlaylistEv+0x1e6>
    1576:	90 91 18 05 	lds	r25, 0x0518	; 0x800518 <_ZN10Soundboard9soundListE+0x54>
    157a:	91 11       	cpse	r25, r1
    157c:	13 c0       	rjmp	.+38     	; 0x15a4 <_ZN10Soundboard12initPlaylistEv+0x1e6>
            toneList[toneNum] = toneRecord(singleTone, toneDuration);
    157e:	e8 2f       	mov	r30, r24
    1580:	f0 e0       	ldi	r31, 0x00	; 0
    1582:	ee 0f       	add	r30, r30
    1584:	ff 1f       	adc	r31, r31
    1586:	ee 0f       	add	r30, r30
    1588:	ff 1f       	adc	r31, r31
    158a:	ec 53       	subi	r30, 0x3C	; 60
    158c:	fb 4f       	sbci	r31, 0xFB	; 251
    158e:	4b e0       	ldi	r20, 0x0B	; 11
    1590:	52 e0       	ldi	r21, 0x02	; 2
    1592:	64 e1       	ldi	r22, 0x14	; 20
    1594:	70 e0       	ldi	r23, 0x00	; 0
    1596:	43 a7       	std	Z+43, r20	; 0x2b
    1598:	54 a7       	std	Z+44, r21	; 0x2c
    159a:	65 a7       	std	Z+45, r22	; 0x2d
    159c:	76 a7       	std	Z+46, r23	; 0x2e
            toneNum++;
    159e:	8f 5f       	subi	r24, 0xFF	; 255
    15a0:	80 93 17 05 	sts	0x0517, r24	; 0x800517 <_ZN10Soundboard9soundListE+0x53>
     * @param duration Duration of tone in milliseconds
     * 
     * @return False if sound is full, true otherwise.
     */
    bool addTone(tone singleTone, uint16_t toneDuration){
        if (toneNum < soundLength && finished == false){
    15a4:	80 91 42 05 	lds	r24, 0x0542	; 0x800542 <_ZN10Soundboard9soundListE+0x7e>
    15a8:	8a 30       	cpi	r24, 0x0A	; 10
    15aa:	b8 f4       	brcc	.+46     	; 0x15da <_ZN10Soundboard12initPlaylistEv+0x21c>
    15ac:	90 91 43 05 	lds	r25, 0x0543	; 0x800543 <_ZN10Soundboard9soundListE+0x7f>
    15b0:	91 11       	cpse	r25, r1
    15b2:	13 c0       	rjmp	.+38     	; 0x15da <_ZN10Soundboard12initPlaylistEv+0x21c>
            toneList[toneNum] = toneRecord(singleTone, toneDuration);
    15b4:	e8 2f       	mov	r30, r24
    15b6:	f0 e0       	ldi	r31, 0x00	; 0
    15b8:	ee 0f       	add	r30, r30
    15ba:	ff 1f       	adc	r31, r31
    15bc:	ee 0f       	add	r30, r30
    15be:	ff 1f       	adc	r31, r31
    15c0:	e6 5e       	subi	r30, 0xE6	; 230
    15c2:	fa 4f       	sbci	r31, 0xFA	; 250
    15c4:	40 e1       	ldi	r20, 0x10	; 16
    15c6:	53 e0       	ldi	r21, 0x03	; 3
    15c8:	6f e0       	ldi	r22, 0x0F	; 15
    15ca:	70 e0       	ldi	r23, 0x00	; 0
    15cc:	40 83       	st	Z, r20
    15ce:	51 83       	std	Z+1, r21	; 0x01
    15d0:	62 83       	std	Z+2, r22	; 0x02
    15d2:	73 83       	std	Z+3, r23	; 0x03
            toneNum++;
    15d4:	8f 5f       	subi	r24, 0xFF	; 255
    15d6:	80 93 42 05 	sts	0x0542, r24	; 0x800542 <_ZN10Soundboard9soundListE+0x7e>
     * @param duration Duration of tone in milliseconds
     * 
     * @return False if sound is full, true otherwise.
     */
    bool addTone(tone singleTone, uint16_t toneDuration){
        if (toneNum < soundLength && finished == false){
    15da:	80 91 42 05 	lds	r24, 0x0542	; 0x800542 <_ZN10Soundboard9soundListE+0x7e>
    15de:	8a 30       	cpi	r24, 0x0A	; 10
    15e0:	b8 f4       	brcc	.+46     	; 0x1610 <_ZN10Soundboard12initPlaylistEv+0x252>
    15e2:	90 91 43 05 	lds	r25, 0x0543	; 0x800543 <_ZN10Soundboard9soundListE+0x7f>
    15e6:	91 11       	cpse	r25, r1
    15e8:	13 c0       	rjmp	.+38     	; 0x1610 <_ZN10Soundboard12initPlaylistEv+0x252>
            toneList[toneNum] = toneRecord(singleTone, toneDuration);
    15ea:	e8 2f       	mov	r30, r24
    15ec:	f0 e0       	ldi	r31, 0x00	; 0
    15ee:	ee 0f       	add	r30, r30
    15f0:	ff 1f       	adc	r31, r31
    15f2:	ee 0f       	add	r30, r30
    15f4:	ff 1f       	adc	r31, r31
    15f6:	e6 5e       	subi	r30, 0xE6	; 230
    15f8:	fa 4f       	sbci	r31, 0xFA	; 250
    15fa:	45 e0       	ldi	r20, 0x05	; 5
    15fc:	51 e0       	ldi	r21, 0x01	; 1
    15fe:	60 e5       	ldi	r22, 0x50	; 80
    1600:	70 e0       	ldi	r23, 0x00	; 0
    1602:	40 83       	st	Z, r20
    1604:	51 83       	std	Z+1, r21	; 0x01
    1606:	62 83       	std	Z+2, r22	; 0x02
    1608:	73 83       	std	Z+3, r23	; 0x03
            toneNum++;
    160a:	8f 5f       	subi	r24, 0xFF	; 255
    160c:	80 93 42 05 	sts	0x0542, r24	; 0x800542 <_ZN10Soundboard9soundListE+0x7e>
     * @param duration Duration of tone in milliseconds
     * 
     * @return False if sound is full, true otherwise.
     */
    bool addTone(tone singleTone, uint16_t toneDuration){
        if (toneNum < soundLength && finished == false){
    1610:	80 91 42 05 	lds	r24, 0x0542	; 0x800542 <_ZN10Soundboard9soundListE+0x7e>
    1614:	8a 30       	cpi	r24, 0x0A	; 10
    1616:	b8 f4       	brcc	.+46     	; 0x1646 <_ZN10Soundboard12initPlaylistEv+0x288>
    1618:	90 91 43 05 	lds	r25, 0x0543	; 0x800543 <_ZN10Soundboard9soundListE+0x7f>
    161c:	91 11       	cpse	r25, r1
    161e:	13 c0       	rjmp	.+38     	; 0x1646 <_ZN10Soundboard12initPlaylistEv+0x288>
            toneList[toneNum] = toneRecord(singleTone, toneDuration);
    1620:	e8 2f       	mov	r30, r24
    1622:	f0 e0       	ldi	r31, 0x00	; 0
    1624:	ee 0f       	add	r30, r30
    1626:	ff 1f       	adc	r31, r31
    1628:	ee 0f       	add	r30, r30
    162a:	ff 1f       	adc	r31, r31
    162c:	e6 5e       	subi	r30, 0xE6	; 230
    162e:	fa 4f       	sbci	r31, 0xFA	; 250
    1630:	4a ef       	ldi	r20, 0xFA	; 250
    1632:	50 e0       	ldi	r21, 0x00	; 0
    1634:	60 e5       	ldi	r22, 0x50	; 80
    1636:	70 e0       	ldi	r23, 0x00	; 0
    1638:	40 83       	st	Z, r20
    163a:	51 83       	std	Z+1, r21	; 0x01
    163c:	62 83       	std	Z+2, r22	; 0x02
    163e:	73 83       	std	Z+3, r23	; 0x03
            toneNum++;
    1640:	8f 5f       	subi	r24, 0xFF	; 255
    1642:	80 93 42 05 	sts	0x0542, r24	; 0x800542 <_ZN10Soundboard9soundListE+0x7e>
     * @param duration Duration of tone in milliseconds
     * 
     * @return False if sound is full, true otherwise.
     */
    bool addTone(tone singleTone, uint16_t toneDuration){
        if (toneNum < soundLength && finished == false){
    1646:	80 91 42 05 	lds	r24, 0x0542	; 0x800542 <_ZN10Soundboard9soundListE+0x7e>
    164a:	8a 30       	cpi	r24, 0x0A	; 10
    164c:	b8 f4       	brcc	.+46     	; 0x167c <_ZN10Soundboard12initPlaylistEv+0x2be>
    164e:	90 91 43 05 	lds	r25, 0x0543	; 0x800543 <_ZN10Soundboard9soundListE+0x7f>
    1652:	91 11       	cpse	r25, r1
    1654:	13 c0       	rjmp	.+38     	; 0x167c <_ZN10Soundboard12initPlaylistEv+0x2be>
            toneList[toneNum] = toneRecord(singleTone, toneDuration);
    1656:	e8 2f       	mov	r30, r24
    1658:	f0 e0       	ldi	r31, 0x00	; 0
    165a:	ee 0f       	add	r30, r30
    165c:	ff 1f       	adc	r31, r31
    165e:	ee 0f       	add	r30, r30
    1660:	ff 1f       	adc	r31, r31
    1662:	e6 5e       	subi	r30, 0xE6	; 230
    1664:	fa 4f       	sbci	r31, 0xFA	; 250
    1666:	4d e5       	ldi	r20, 0x5D	; 93
    1668:	51 e0       	ldi	r21, 0x01	; 1
    166a:	66 e9       	ldi	r22, 0x96	; 150
    166c:	70 e0       	ldi	r23, 0x00	; 0
    166e:	40 83       	st	Z, r20
    1670:	51 83       	std	Z+1, r21	; 0x01
    1672:	62 83       	std	Z+2, r22	; 0x02
    1674:	73 83       	std	Z+3, r23	; 0x03
            toneNum++;
    1676:	8f 5f       	subi	r24, 0xFF	; 255
    1678:	80 93 42 05 	sts	0x0542, r24	; 0x800542 <_ZN10Soundboard9soundListE+0x7e>
     * @param duration Duration of tone in milliseconds
     * 
     * @return False if sound is full, true otherwise.
     */
    bool addTone(tone singleTone, uint16_t toneDuration){
        if (toneNum < soundLength && finished == false){
    167c:	80 91 6d 05 	lds	r24, 0x056D	; 0x80056d <_ZN10Soundboard9soundListE+0xa9>
    1680:	8a 30       	cpi	r24, 0x0A	; 10
    1682:	b8 f4       	brcc	.+46     	; 0x16b2 <_ZN10Soundboard12initPlaylistEv+0x2f4>
    1684:	90 91 6e 05 	lds	r25, 0x056E	; 0x80056e <_ZN10Soundboard9soundListE+0xaa>
    1688:	91 11       	cpse	r25, r1
    168a:	13 c0       	rjmp	.+38     	; 0x16b2 <_ZN10Soundboard12initPlaylistEv+0x2f4>
            toneList[toneNum] = toneRecord(singleTone, toneDuration);
    168c:	e8 2f       	mov	r30, r24
    168e:	f0 e0       	ldi	r31, 0x00	; 0
    1690:	ee 0f       	add	r30, r30
    1692:	ff 1f       	adc	r31, r31
    1694:	ee 0f       	add	r30, r30
    1696:	ff 1f       	adc	r31, r31
    1698:	eb 5b       	subi	r30, 0xBB	; 187
    169a:	fa 4f       	sbci	r31, 0xFA	; 250
    169c:	49 e4       	ldi	r20, 0x49	; 73
    169e:	51 e0       	ldi	r21, 0x01	; 1
    16a0:	6c e3       	ldi	r22, 0x3C	; 60
    16a2:	70 e0       	ldi	r23, 0x00	; 0
    16a4:	40 83       	st	Z, r20
    16a6:	51 83       	std	Z+1, r21	; 0x01
    16a8:	62 83       	std	Z+2, r22	; 0x02
    16aa:	73 83       	std	Z+3, r23	; 0x03
            toneNum++;
    16ac:	8f 5f       	subi	r24, 0xFF	; 255
    16ae:	80 93 6d 05 	sts	0x056D, r24	; 0x80056d <_ZN10Soundboard9soundListE+0xa9>
     * @param duration Duration of tone in milliseconds
     * 
     * @return False if sound is full, true otherwise.
     */
    bool addTone(tone singleTone, uint16_t toneDuration){
        if (toneNum < soundLength && finished == false){
    16b2:	80 91 6d 05 	lds	r24, 0x056D	; 0x80056d <_ZN10Soundboard9soundListE+0xa9>
    16b6:	8a 30       	cpi	r24, 0x0A	; 10
    16b8:	b8 f4       	brcc	.+46     	; 0x16e8 <_ZN10Soundboard12initPlaylistEv+0x32a>
    16ba:	90 91 6e 05 	lds	r25, 0x056E	; 0x80056e <_ZN10Soundboard9soundListE+0xaa>
    16be:	91 11       	cpse	r25, r1
    16c0:	13 c0       	rjmp	.+38     	; 0x16e8 <_ZN10Soundboard12initPlaylistEv+0x32a>
            toneList[toneNum] = toneRecord(singleTone, toneDuration);
    16c2:	e8 2f       	mov	r30, r24
    16c4:	f0 e0       	ldi	r31, 0x00	; 0
    16c6:	ee 0f       	add	r30, r30
    16c8:	ff 1f       	adc	r31, r31
    16ca:	ee 0f       	add	r30, r30
    16cc:	ff 1f       	adc	r31, r31
    16ce:	eb 5b       	subi	r30, 0xBB	; 187
    16d0:	fa 4f       	sbci	r31, 0xFA	; 250
    16d2:	4d e5       	ldi	r20, 0x5D	; 93
    16d4:	51 e0       	ldi	r21, 0x01	; 1
    16d6:	6c e3       	ldi	r22, 0x3C	; 60
    16d8:	70 e0       	ldi	r23, 0x00	; 0
    16da:	40 83       	st	Z, r20
    16dc:	51 83       	std	Z+1, r21	; 0x01
    16de:	62 83       	std	Z+2, r22	; 0x02
    16e0:	73 83       	std	Z+3, r23	; 0x03
            toneNum++;
    16e2:	8f 5f       	subi	r24, 0xFF	; 255
    16e4:	80 93 6d 05 	sts	0x056D, r24	; 0x80056d <_ZN10Soundboard9soundListE+0xa9>
     * @param duration Duration of tone in milliseconds
     * 
     * @return False if sound is full, true otherwise.
     */
    bool addTone(tone singleTone, uint16_t toneDuration){
        if (toneNum < soundLength && finished == false){
    16e8:	80 91 6d 05 	lds	r24, 0x056D	; 0x80056d <_ZN10Soundboard9soundListE+0xa9>
    16ec:	8a 30       	cpi	r24, 0x0A	; 10
    16ee:	b8 f4       	brcc	.+46     	; 0x171e <_ZN10Soundboard12initPlaylistEv+0x360>
    16f0:	90 91 6e 05 	lds	r25, 0x056E	; 0x80056e <_ZN10Soundboard9soundListE+0xaa>
    16f4:	91 11       	cpse	r25, r1
    16f6:	13 c0       	rjmp	.+38     	; 0x171e <_ZN10Soundboard12initPlaylistEv+0x360>
            toneList[toneNum] = toneRecord(singleTone, toneDuration);
    16f8:	e8 2f       	mov	r30, r24
    16fa:	f0 e0       	ldi	r31, 0x00	; 0
    16fc:	ee 0f       	add	r30, r30
    16fe:	ff 1f       	adc	r31, r31
    1700:	ee 0f       	add	r30, r30
    1702:	ff 1f       	adc	r31, r31
    1704:	eb 5b       	subi	r30, 0xBB	; 187
    1706:	fa 4f       	sbci	r31, 0xFA	; 250
    1708:	47 e8       	ldi	r20, 0x87	; 135
    170a:	51 e0       	ldi	r21, 0x01	; 1
    170c:	6c e3       	ldi	r22, 0x3C	; 60
    170e:	70 e0       	ldi	r23, 0x00	; 0
    1710:	40 83       	st	Z, r20
    1712:	51 83       	std	Z+1, r21	; 0x01
    1714:	62 83       	std	Z+2, r22	; 0x02
    1716:	73 83       	std	Z+3, r23	; 0x03
            toneNum++;
    1718:	8f 5f       	subi	r24, 0xFF	; 255
    171a:	80 93 6d 05 	sts	0x056D, r24	; 0x80056d <_ZN10Soundboard9soundListE+0xa9>
     * @param duration Duration of tone in milliseconds
     * 
     * @return False if sound is full, true otherwise.
     */
    bool addTone(tone singleTone, uint16_t toneDuration){
        if (toneNum < soundLength && finished == false){
    171e:	80 91 6d 05 	lds	r24, 0x056D	; 0x80056d <_ZN10Soundboard9soundListE+0xa9>
    1722:	8a 30       	cpi	r24, 0x0A	; 10
    1724:	b8 f4       	brcc	.+46     	; 0x1754 <_ZN10Soundboard12initPlaylistEv+0x396>
    1726:	90 91 6e 05 	lds	r25, 0x056E	; 0x80056e <_ZN10Soundboard9soundListE+0xaa>
    172a:	91 11       	cpse	r25, r1
    172c:	13 c0       	rjmp	.+38     	; 0x1754 <_ZN10Soundboard12initPlaylistEv+0x396>
            toneList[toneNum] = toneRecord(singleTone, toneDuration);
    172e:	e8 2f       	mov	r30, r24
    1730:	f0 e0       	ldi	r31, 0x00	; 0
    1732:	ee 0f       	add	r30, r30
    1734:	ff 1f       	adc	r31, r31
    1736:	ee 0f       	add	r30, r30
    1738:	ff 1f       	adc	r31, r31
    173a:	eb 5b       	subi	r30, 0xBB	; 187
    173c:	fa 4f       	sbci	r31, 0xFA	; 250
    173e:	4d e5       	ldi	r20, 0x5D	; 93
    1740:	51 e0       	ldi	r21, 0x01	; 1
    1742:	6c e3       	ldi	r22, 0x3C	; 60
    1744:	70 e0       	ldi	r23, 0x00	; 0
    1746:	40 83       	st	Z, r20
    1748:	51 83       	std	Z+1, r21	; 0x01
    174a:	62 83       	std	Z+2, r22	; 0x02
    174c:	73 83       	std	Z+3, r23	; 0x03
            toneNum++;
    174e:	8f 5f       	subi	r24, 0xFF	; 255
    1750:	80 93 6d 05 	sts	0x056D, r24	; 0x80056d <_ZN10Soundboard9soundListE+0xa9>
     * @param duration Duration of tone in milliseconds
     * 
     * @return False if sound is full, true otherwise.
     */
    bool addTone(tone singleTone, uint16_t toneDuration){
        if (toneNum < soundLength && finished == false){
    1754:	80 91 6d 05 	lds	r24, 0x056D	; 0x80056d <_ZN10Soundboard9soundListE+0xa9>
    1758:	8a 30       	cpi	r24, 0x0A	; 10
    175a:	b8 f4       	brcc	.+46     	; 0x178a <_ZN10Soundboard12initPlaylistEv+0x3cc>
    175c:	90 91 6e 05 	lds	r25, 0x056E	; 0x80056e <_ZN10Soundboard9soundListE+0xaa>
    1760:	91 11       	cpse	r25, r1
    1762:	13 c0       	rjmp	.+38     	; 0x178a <_ZN10Soundboard12initPlaylistEv+0x3cc>
            toneList[toneNum] = toneRecord(singleTone, toneDuration);
    1764:	e8 2f       	mov	r30, r24
    1766:	f0 e0       	ldi	r31, 0x00	; 0
    1768:	ee 0f       	add	r30, r30
    176a:	ff 1f       	adc	r31, r31
    176c:	ee 0f       	add	r30, r30
    176e:	ff 1f       	adc	r31, r31
    1770:	eb 5b       	subi	r30, 0xBB	; 187
    1772:	fa 4f       	sbci	r31, 0xFA	; 250
    1774:	49 e4       	ldi	r20, 0x49	; 73
    1776:	51 e0       	ldi	r21, 0x01	; 1
    1778:	6c e3       	ldi	r22, 0x3C	; 60
    177a:	70 e0       	ldi	r23, 0x00	; 0
    177c:	40 83       	st	Z, r20
    177e:	51 83       	std	Z+1, r21	; 0x01
    1780:	62 83       	std	Z+2, r22	; 0x02
    1782:	73 83       	std	Z+3, r23	; 0x03
            toneNum++;
    1784:	8f 5f       	subi	r24, 0xFF	; 255
    1786:	80 93 6d 05 	sts	0x056D, r24	; 0x80056d <_ZN10Soundboard9soundListE+0xa9>
     * @param duration Duration of tone in milliseconds
     * 
     * @return False if sound is full, true otherwise.
     */
    bool addTone(tone singleTone, uint16_t toneDuration){
        if (toneNum < soundLength && finished == false){
    178a:	80 91 6d 05 	lds	r24, 0x056D	; 0x80056d <_ZN10Soundboard9soundListE+0xa9>
    178e:	8a 30       	cpi	r24, 0x0A	; 10
    1790:	b8 f4       	brcc	.+46     	; 0x17c0 <_ZN10Soundboard12initPlaylistEv+0x402>
    1792:	90 91 6e 05 	lds	r25, 0x056E	; 0x80056e <_ZN10Soundboard9soundListE+0xaa>
    1796:	91 11       	cpse	r25, r1
    1798:	13 c0       	rjmp	.+38     	; 0x17c0 <_ZN10Soundboard12initPlaylistEv+0x402>
            toneList[toneNum] = toneRecord(singleTone, toneDuration);
    179a:	e8 2f       	mov	r30, r24
    179c:	f0 e0       	ldi	r31, 0x00	; 0
    179e:	ee 0f       	add	r30, r30
    17a0:	ff 1f       	adc	r31, r31
    17a2:	ee 0f       	add	r30, r30
    17a4:	ff 1f       	adc	r31, r31
    17a6:	eb 5b       	subi	r30, 0xBB	; 187
    17a8:	fa 4f       	sbci	r31, 0xFA	; 250
    17aa:	49 e4       	ldi	r20, 0x49	; 73
    17ac:	51 e0       	ldi	r21, 0x01	; 1
    17ae:	6c e3       	ldi	r22, 0x3C	; 60
    17b0:	70 e0       	ldi	r23, 0x00	; 0
    17b2:	40 83       	st	Z, r20
    17b4:	51 83       	std	Z+1, r21	; 0x01
    17b6:	62 83       	std	Z+2, r22	; 0x02
    17b8:	73 83       	std	Z+3, r23	; 0x03
            toneNum++;
    17ba:	8f 5f       	subi	r24, 0xFF	; 255
    17bc:	80 93 6d 05 	sts	0x056D, r24	; 0x80056d <_ZN10Soundboard9soundListE+0xa9>
     * @param duration Duration of tone in milliseconds
     * 
     * @return False if sound is full, true otherwise.
     */
    bool addTone(tone singleTone, uint16_t toneDuration){
        if (toneNum < soundLength && finished == false){
    17c0:	80 91 6d 05 	lds	r24, 0x056D	; 0x80056d <_ZN10Soundboard9soundListE+0xa9>
    17c4:	8a 30       	cpi	r24, 0x0A	; 10
    17c6:	b8 f4       	brcc	.+46     	; 0x17f6 <_ZN10Soundboard12initPlaylistEv+0x438>
    17c8:	90 91 6e 05 	lds	r25, 0x056E	; 0x80056e <_ZN10Soundboard9soundListE+0xaa>
    17cc:	91 11       	cpse	r25, r1
    17ce:	13 c0       	rjmp	.+38     	; 0x17f6 <_ZN10Soundboard12initPlaylistEv+0x438>
            toneList[toneNum] = toneRecord(singleTone, toneDuration);
    17d0:	e8 2f       	mov	r30, r24
    17d2:	f0 e0       	ldi	r31, 0x00	; 0
    17d4:	ee 0f       	add	r30, r30
    17d6:	ff 1f       	adc	r31, r31
    17d8:	ee 0f       	add	r30, r30
    17da:	ff 1f       	adc	r31, r31
    17dc:	eb 5b       	subi	r30, 0xBB	; 187
    17de:	fa 4f       	sbci	r31, 0xFA	; 250
    17e0:	4d e5       	ldi	r20, 0x5D	; 93
    17e2:	51 e0       	ldi	r21, 0x01	; 1
    17e4:	6c e3       	ldi	r22, 0x3C	; 60
    17e6:	70 e0       	ldi	r23, 0x00	; 0
    17e8:	40 83       	st	Z, r20
    17ea:	51 83       	std	Z+1, r21	; 0x01
    17ec:	62 83       	std	Z+2, r22	; 0x02
    17ee:	73 83       	std	Z+3, r23	; 0x03
            toneNum++;
    17f0:	8f 5f       	subi	r24, 0xFF	; 255
    17f2:	80 93 6d 05 	sts	0x056D, r24	; 0x80056d <_ZN10Soundboard9soundListE+0xa9>
     * @param duration Duration of tone in milliseconds
     * 
     * @return False if sound is full, true otherwise.
     */
    bool addTone(tone singleTone, uint16_t toneDuration){
        if (toneNum < soundLength && finished == false){
    17f6:	80 91 6d 05 	lds	r24, 0x056D	; 0x80056d <_ZN10Soundboard9soundListE+0xa9>
    17fa:	8a 30       	cpi	r24, 0x0A	; 10
    17fc:	b8 f4       	brcc	.+46     	; 0x182c <_ZN10Soundboard12initPlaylistEv+0x46e>
    17fe:	90 91 6e 05 	lds	r25, 0x056E	; 0x80056e <_ZN10Soundboard9soundListE+0xaa>
    1802:	91 11       	cpse	r25, r1
    1804:	13 c0       	rjmp	.+38     	; 0x182c <_ZN10Soundboard12initPlaylistEv+0x46e>
            toneList[toneNum] = toneRecord(singleTone, toneDuration);
    1806:	e8 2f       	mov	r30, r24
    1808:	f0 e0       	ldi	r31, 0x00	; 0
    180a:	ee 0f       	add	r30, r30
    180c:	ff 1f       	adc	r31, r31
    180e:	ee 0f       	add	r30, r30
    1810:	ff 1f       	adc	r31, r31
    1812:	eb 5b       	subi	r30, 0xBB	; 187
    1814:	fa 4f       	sbci	r31, 0xFA	; 250
    1816:	47 e8       	ldi	r20, 0x87	; 135
    1818:	51 e0       	ldi	r21, 0x01	; 1
    181a:	6c e3       	ldi	r22, 0x3C	; 60
    181c:	70 e0       	ldi	r23, 0x00	; 0
    181e:	40 83       	st	Z, r20
    1820:	51 83       	std	Z+1, r21	; 0x01
    1822:	62 83       	std	Z+2, r22	; 0x02
    1824:	73 83       	std	Z+3, r23	; 0x03
            toneNum++;
    1826:	8f 5f       	subi	r24, 0xFF	; 255
    1828:	80 93 6d 05 	sts	0x056D, r24	; 0x80056d <_ZN10Soundboard9soundListE+0xa9>
     * @param duration Duration of tone in milliseconds
     * 
     * @return False if sound is full, true otherwise.
     */
    bool addTone(tone singleTone, uint16_t toneDuration){
        if (toneNum < soundLength && finished == false){
    182c:	80 91 6d 05 	lds	r24, 0x056D	; 0x80056d <_ZN10Soundboard9soundListE+0xa9>
    1830:	8a 30       	cpi	r24, 0x0A	; 10
    1832:	b8 f4       	brcc	.+46     	; 0x1862 <_ZN10Soundboard12initPlaylistEv+0x4a4>
    1834:	90 91 6e 05 	lds	r25, 0x056E	; 0x80056e <_ZN10Soundboard9soundListE+0xaa>
    1838:	91 11       	cpse	r25, r1
    183a:	13 c0       	rjmp	.+38     	; 0x1862 <_ZN10Soundboard12initPlaylistEv+0x4a4>
            toneList[toneNum] = toneRecord(singleTone, toneDuration);
    183c:	e8 2f       	mov	r30, r24
    183e:	f0 e0       	ldi	r31, 0x00	; 0
    1840:	ee 0f       	add	r30, r30
    1842:	ff 1f       	adc	r31, r31
    1844:	ee 0f       	add	r30, r30
    1846:	ff 1f       	adc	r31, r31
    1848:	eb 5b       	subi	r30, 0xBB	; 187
    184a:	fa 4f       	sbci	r31, 0xFA	; 250
    184c:	4d e5       	ldi	r20, 0x5D	; 93
    184e:	51 e0       	ldi	r21, 0x01	; 1
    1850:	6c e3       	ldi	r22, 0x3C	; 60
    1852:	70 e0       	ldi	r23, 0x00	; 0
    1854:	40 83       	st	Z, r20
    1856:	51 83       	std	Z+1, r21	; 0x01
    1858:	62 83       	std	Z+2, r22	; 0x02
    185a:	73 83       	std	Z+3, r23	; 0x03
            toneNum++;
    185c:	8f 5f       	subi	r24, 0xFF	; 255
    185e:	80 93 6d 05 	sts	0x056D, r24	; 0x80056d <_ZN10Soundboard9soundListE+0xa9>
     * @param duration Duration of tone in milliseconds
     * 
     * @return False if sound is full, true otherwise.
     */
    bool addTone(tone singleTone, uint16_t toneDuration){
        if (toneNum < soundLength && finished == false){
    1862:	80 91 6d 05 	lds	r24, 0x056D	; 0x80056d <_ZN10Soundboard9soundListE+0xa9>
    1866:	8a 30       	cpi	r24, 0x0A	; 10
    1868:	b8 f4       	brcc	.+46     	; 0x1898 <_ZN10Soundboard12initPlaylistEv+0x4da>
    186a:	90 91 6e 05 	lds	r25, 0x056E	; 0x80056e <_ZN10Soundboard9soundListE+0xaa>
    186e:	91 11       	cpse	r25, r1
    1870:	13 c0       	rjmp	.+38     	; 0x1898 <_ZN10Soundboard12initPlaylistEv+0x4da>
            toneList[toneNum] = toneRecord(singleTone, toneDuration);
    1872:	e8 2f       	mov	r30, r24
    1874:	f0 e0       	ldi	r31, 0x00	; 0
    1876:	ee 0f       	add	r30, r30
    1878:	ff 1f       	adc	r31, r31
    187a:	ee 0f       	add	r30, r30
    187c:	ff 1f       	adc	r31, r31
    187e:	eb 5b       	subi	r30, 0xBB	; 187
    1880:	fa 4f       	sbci	r31, 0xFA	; 250
    1882:	49 e4       	ldi	r20, 0x49	; 73
    1884:	51 e0       	ldi	r21, 0x01	; 1
    1886:	6c e3       	ldi	r22, 0x3C	; 60
    1888:	70 e0       	ldi	r23, 0x00	; 0
    188a:	40 83       	st	Z, r20
    188c:	51 83       	std	Z+1, r21	; 0x01
    188e:	62 83       	std	Z+2, r22	; 0x02
    1890:	73 83       	std	Z+3, r23	; 0x03
            toneNum++;
    1892:	8f 5f       	subi	r24, 0xFF	; 255
    1894:	80 93 6d 05 	sts	0x056D, r24	; 0x80056d <_ZN10Soundboard9soundListE+0xa9>
     * @param duration Duration of tone in milliseconds
     * 
     * @return False if sound is full, true otherwise.
     */
    bool addTone(tone singleTone, uint16_t toneDuration){
        if (toneNum < soundLength && finished == false){
    1898:	80 91 38 03 	lds	r24, 0x0338	; 0x800338 <_ZN10Soundboard10melodyListE+0x80>
    189c:	80 32       	cpi	r24, 0x20	; 32
    189e:	b8 f4       	brcc	.+46     	; 0x18ce <_ZN10Soundboard12initPlaylistEv+0x510>
    18a0:	90 91 39 03 	lds	r25, 0x0339	; 0x800339 <_ZN10Soundboard10melodyListE+0x81>
    18a4:	91 11       	cpse	r25, r1
    18a6:	13 c0       	rjmp	.+38     	; 0x18ce <_ZN10Soundboard12initPlaylistEv+0x510>
            toneList[toneNum] = toneRecord(singleTone, toneDuration);
    18a8:	e8 2f       	mov	r30, r24
    18aa:	f0 e0       	ldi	r31, 0x00	; 0
    18ac:	ee 0f       	add	r30, r30
    18ae:	ff 1f       	adc	r31, r31
    18b0:	ee 0f       	add	r30, r30
    18b2:	ff 1f       	adc	r31, r31
    18b4:	e8 54       	subi	r30, 0x48	; 72
    18b6:	fd 4f       	sbci	r31, 0xFD	; 253
    18b8:	48 eb       	ldi	r20, 0xB8	; 184
    18ba:	51 e0       	ldi	r21, 0x01	; 1
    18bc:	64 ef       	ldi	r22, 0xF4	; 244
    18be:	71 e0       	ldi	r23, 0x01	; 1
    18c0:	40 83       	st	Z, r20
    18c2:	51 83       	std	Z+1, r21	; 0x01
    18c4:	62 83       	std	Z+2, r22	; 0x02
    18c6:	73 83       	std	Z+3, r23	; 0x03
            toneNum++;
    18c8:	8f 5f       	subi	r24, 0xFF	; 255
    18ca:	80 93 38 03 	sts	0x0338, r24	; 0x800338 <_ZN10Soundboard10melodyListE+0x80>
     * @param duration Duration of tone in milliseconds
     * 
     * @return False if sound is full, true otherwise.
     */
    bool addTone(tone singleTone, uint16_t toneDuration){
        if (toneNum < soundLength && finished == false){
    18ce:	80 91 38 03 	lds	r24, 0x0338	; 0x800338 <_ZN10Soundboard10melodyListE+0x80>
    18d2:	80 32       	cpi	r24, 0x20	; 32
    18d4:	b8 f4       	brcc	.+46     	; 0x1904 <_ZN10Soundboard12initPlaylistEv+0x546>
    18d6:	90 91 39 03 	lds	r25, 0x0339	; 0x800339 <_ZN10Soundboard10melodyListE+0x81>
    18da:	91 11       	cpse	r25, r1
    18dc:	13 c0       	rjmp	.+38     	; 0x1904 <_ZN10Soundboard12initPlaylistEv+0x546>
            toneList[toneNum] = toneRecord(singleTone, toneDuration);
    18de:	e8 2f       	mov	r30, r24
    18e0:	f0 e0       	ldi	r31, 0x00	; 0
    18e2:	ee 0f       	add	r30, r30
    18e4:	ff 1f       	adc	r31, r31
    18e6:	ee 0f       	add	r30, r30
    18e8:	ff 1f       	adc	r31, r31
    18ea:	e8 54       	subi	r30, 0x48	; 72
    18ec:	fd 4f       	sbci	r31, 0xFD	; 253
    18ee:	48 eb       	ldi	r20, 0xB8	; 184
    18f0:	51 e0       	ldi	r21, 0x01	; 1
    18f2:	64 ef       	ldi	r22, 0xF4	; 244
    18f4:	71 e0       	ldi	r23, 0x01	; 1
    18f6:	40 83       	st	Z, r20
    18f8:	51 83       	std	Z+1, r21	; 0x01
    18fa:	62 83       	std	Z+2, r22	; 0x02
    18fc:	73 83       	std	Z+3, r23	; 0x03
            toneNum++;
    18fe:	8f 5f       	subi	r24, 0xFF	; 255
    1900:	80 93 38 03 	sts	0x0338, r24	; 0x800338 <_ZN10Soundboard10melodyListE+0x80>
     * @param duration Duration of tone in milliseconds
     * 
     * @return False if sound is full, true otherwise.
     */
    bool addTone(tone singleTone, uint16_t toneDuration){
        if (toneNum < soundLength && finished == false){
    1904:	80 91 38 03 	lds	r24, 0x0338	; 0x800338 <_ZN10Soundboard10melodyListE+0x80>
    1908:	80 32       	cpi	r24, 0x20	; 32
    190a:	b8 f4       	brcc	.+46     	; 0x193a <_ZN10Soundboard12initPlaylistEv+0x57c>
    190c:	90 91 39 03 	lds	r25, 0x0339	; 0x800339 <_ZN10Soundboard10melodyListE+0x81>
    1910:	91 11       	cpse	r25, r1
    1912:	13 c0       	rjmp	.+38     	; 0x193a <_ZN10Soundboard12initPlaylistEv+0x57c>
            toneList[toneNum] = toneRecord(singleTone, toneDuration);
    1914:	e8 2f       	mov	r30, r24
    1916:	f0 e0       	ldi	r31, 0x00	; 0
    1918:	ee 0f       	add	r30, r30
    191a:	ff 1f       	adc	r31, r31
    191c:	ee 0f       	add	r30, r30
    191e:	ff 1f       	adc	r31, r31
    1920:	e8 54       	subi	r30, 0x48	; 72
    1922:	fd 4f       	sbci	r31, 0xFD	; 253
    1924:	48 eb       	ldi	r20, 0xB8	; 184
    1926:	51 e0       	ldi	r21, 0x01	; 1
    1928:	64 ef       	ldi	r22, 0xF4	; 244
    192a:	71 e0       	ldi	r23, 0x01	; 1
    192c:	40 83       	st	Z, r20
    192e:	51 83       	std	Z+1, r21	; 0x01
    1930:	62 83       	std	Z+2, r22	; 0x02
    1932:	73 83       	std	Z+3, r23	; 0x03
            toneNum++;
    1934:	8f 5f       	subi	r24, 0xFF	; 255
    1936:	80 93 38 03 	sts	0x0338, r24	; 0x800338 <_ZN10Soundboard10melodyListE+0x80>
     * @param duration Duration of tone in milliseconds
     * 
     * @return False if sound is full, true otherwise.
     */
    bool addTone(tone singleTone, uint16_t toneDuration){
        if (toneNum < soundLength && finished == false){
    193a:	80 91 38 03 	lds	r24, 0x0338	; 0x800338 <_ZN10Soundboard10melodyListE+0x80>
    193e:	80 32       	cpi	r24, 0x20	; 32
    1940:	b8 f4       	brcc	.+46     	; 0x1970 <_ZN10Soundboard12initPlaylistEv+0x5b2>
    1942:	90 91 39 03 	lds	r25, 0x0339	; 0x800339 <_ZN10Soundboard10melodyListE+0x81>
    1946:	91 11       	cpse	r25, r1
    1948:	13 c0       	rjmp	.+38     	; 0x1970 <_ZN10Soundboard12initPlaylistEv+0x5b2>
            toneList[toneNum] = toneRecord(singleTone, toneDuration);
    194a:	e8 2f       	mov	r30, r24
    194c:	f0 e0       	ldi	r31, 0x00	; 0
    194e:	ee 0f       	add	r30, r30
    1950:	ff 1f       	adc	r31, r31
    1952:	ee 0f       	add	r30, r30
    1954:	ff 1f       	adc	r31, r31
    1956:	e8 54       	subi	r30, 0x48	; 72
    1958:	fd 4f       	sbci	r31, 0xFD	; 253
    195a:	4d e5       	ldi	r20, 0x5D	; 93
    195c:	51 e0       	ldi	r21, 0x01	; 1
    195e:	6e e5       	ldi	r22, 0x5E	; 94
    1960:	71 e0       	ldi	r23, 0x01	; 1
    1962:	40 83       	st	Z, r20
    1964:	51 83       	std	Z+1, r21	; 0x01
    1966:	62 83       	std	Z+2, r22	; 0x02
    1968:	73 83       	std	Z+3, r23	; 0x03
            toneNum++;
    196a:	8f 5f       	subi	r24, 0xFF	; 255
    196c:	80 93 38 03 	sts	0x0338, r24	; 0x800338 <_ZN10Soundboard10melodyListE+0x80>
     * @param duration Duration of tone in milliseconds
     * 
     * @return False if sound is full, true otherwise.
     */
    bool addTone(tone singleTone, uint16_t toneDuration){
        if (toneNum < soundLength && finished == false){
    1970:	80 91 38 03 	lds	r24, 0x0338	; 0x800338 <_ZN10Soundboard10melodyListE+0x80>
    1974:	80 32       	cpi	r24, 0x20	; 32
    1976:	b8 f4       	brcc	.+46     	; 0x19a6 <_ZN10Soundboard12initPlaylistEv+0x5e8>
    1978:	90 91 39 03 	lds	r25, 0x0339	; 0x800339 <_ZN10Soundboard10melodyListE+0x81>
    197c:	91 11       	cpse	r25, r1
    197e:	13 c0       	rjmp	.+38     	; 0x19a6 <_ZN10Soundboard12initPlaylistEv+0x5e8>
            toneList[toneNum] = toneRecord(singleTone, toneDuration);
    1980:	e8 2f       	mov	r30, r24
    1982:	f0 e0       	ldi	r31, 0x00	; 0
    1984:	ee 0f       	add	r30, r30
    1986:	ff 1f       	adc	r31, r31
    1988:	ee 0f       	add	r30, r30
    198a:	ff 1f       	adc	r31, r31
    198c:	e8 54       	subi	r30, 0x48	; 72
    198e:	fd 4f       	sbci	r31, 0xFD	; 253
    1990:	4b e0       	ldi	r20, 0x0B	; 11
    1992:	52 e0       	ldi	r21, 0x02	; 2
    1994:	66 e9       	ldi	r22, 0x96	; 150
    1996:	70 e0       	ldi	r23, 0x00	; 0
    1998:	40 83       	st	Z, r20
    199a:	51 83       	std	Z+1, r21	; 0x01
    199c:	62 83       	std	Z+2, r22	; 0x02
    199e:	73 83       	std	Z+3, r23	; 0x03
            toneNum++;
    19a0:	8f 5f       	subi	r24, 0xFF	; 255
    19a2:	80 93 38 03 	sts	0x0338, r24	; 0x800338 <_ZN10Soundboard10melodyListE+0x80>
     * @param duration Duration of tone in milliseconds
     * 
     * @return False if sound is full, true otherwise.
     */
    bool addTone(tone singleTone, uint16_t toneDuration){
        if (toneNum < soundLength && finished == false){
    19a6:	80 91 38 03 	lds	r24, 0x0338	; 0x800338 <_ZN10Soundboard10melodyListE+0x80>
    19aa:	80 32       	cpi	r24, 0x20	; 32
    19ac:	b8 f4       	brcc	.+46     	; 0x19dc <_ZN10Soundboard12initPlaylistEv+0x61e>
    19ae:	90 91 39 03 	lds	r25, 0x0339	; 0x800339 <_ZN10Soundboard10melodyListE+0x81>
    19b2:	91 11       	cpse	r25, r1
    19b4:	13 c0       	rjmp	.+38     	; 0x19dc <_ZN10Soundboard12initPlaylistEv+0x61e>
            toneList[toneNum] = toneRecord(singleTone, toneDuration);
    19b6:	e8 2f       	mov	r30, r24
    19b8:	f0 e0       	ldi	r31, 0x00	; 0
    19ba:	ee 0f       	add	r30, r30
    19bc:	ff 1f       	adc	r31, r31
    19be:	ee 0f       	add	r30, r30
    19c0:	ff 1f       	adc	r31, r31
    19c2:	e8 54       	subi	r30, 0x48	; 72
    19c4:	fd 4f       	sbci	r31, 0xFD	; 253
    19c6:	48 eb       	ldi	r20, 0xB8	; 184
    19c8:	51 e0       	ldi	r21, 0x01	; 1
    19ca:	64 ef       	ldi	r22, 0xF4	; 244
    19cc:	71 e0       	ldi	r23, 0x01	; 1
    19ce:	40 83       	st	Z, r20
    19d0:	51 83       	std	Z+1, r21	; 0x01
    19d2:	62 83       	std	Z+2, r22	; 0x02
    19d4:	73 83       	std	Z+3, r23	; 0x03
            toneNum++;
    19d6:	8f 5f       	subi	r24, 0xFF	; 255
    19d8:	80 93 38 03 	sts	0x0338, r24	; 0x800338 <_ZN10Soundboard10melodyListE+0x80>
     * @param duration Duration of tone in milliseconds
     * 
     * @return False if sound is full, true otherwise.
     */
    bool addTone(tone singleTone, uint16_t toneDuration){
        if (toneNum < soundLength && finished == false){
    19dc:	80 91 38 03 	lds	r24, 0x0338	; 0x800338 <_ZN10Soundboard10melodyListE+0x80>
    19e0:	80 32       	cpi	r24, 0x20	; 32
    19e2:	b8 f4       	brcc	.+46     	; 0x1a12 <_ZN10Soundboard12initPlaylistEv+0x654>
    19e4:	90 91 39 03 	lds	r25, 0x0339	; 0x800339 <_ZN10Soundboard10melodyListE+0x81>
    19e8:	91 11       	cpse	r25, r1
    19ea:	13 c0       	rjmp	.+38     	; 0x1a12 <_ZN10Soundboard12initPlaylistEv+0x654>
            toneList[toneNum] = toneRecord(singleTone, toneDuration);
    19ec:	e8 2f       	mov	r30, r24
    19ee:	f0 e0       	ldi	r31, 0x00	; 0
    19f0:	ee 0f       	add	r30, r30
    19f2:	ff 1f       	adc	r31, r31
    19f4:	ee 0f       	add	r30, r30
    19f6:	ff 1f       	adc	r31, r31
    19f8:	e8 54       	subi	r30, 0x48	; 72
    19fa:	fd 4f       	sbci	r31, 0xFD	; 253
    19fc:	4d e5       	ldi	r20, 0x5D	; 93
    19fe:	51 e0       	ldi	r21, 0x01	; 1
    1a00:	6e e5       	ldi	r22, 0x5E	; 94
    1a02:	71 e0       	ldi	r23, 0x01	; 1
    1a04:	40 83       	st	Z, r20
    1a06:	51 83       	std	Z+1, r21	; 0x01
    1a08:	62 83       	std	Z+2, r22	; 0x02
    1a0a:	73 83       	std	Z+3, r23	; 0x03
            toneNum++;
    1a0c:	8f 5f       	subi	r24, 0xFF	; 255
    1a0e:	80 93 38 03 	sts	0x0338, r24	; 0x800338 <_ZN10Soundboard10melodyListE+0x80>
     * @param duration Duration of tone in milliseconds
     * 
     * @return False if sound is full, true otherwise.
     */
    bool addTone(tone singleTone, uint16_t toneDuration){
        if (toneNum < soundLength && finished == false){
    1a12:	80 91 38 03 	lds	r24, 0x0338	; 0x800338 <_ZN10Soundboard10melodyListE+0x80>
    1a16:	80 32       	cpi	r24, 0x20	; 32
    1a18:	b8 f4       	brcc	.+46     	; 0x1a48 <_ZN10Soundboard12initPlaylistEv+0x68a>
    1a1a:	90 91 39 03 	lds	r25, 0x0339	; 0x800339 <_ZN10Soundboard10melodyListE+0x81>
    1a1e:	91 11       	cpse	r25, r1
    1a20:	13 c0       	rjmp	.+38     	; 0x1a48 <_ZN10Soundboard12initPlaylistEv+0x68a>
            toneList[toneNum] = toneRecord(singleTone, toneDuration);
    1a22:	e8 2f       	mov	r30, r24
    1a24:	f0 e0       	ldi	r31, 0x00	; 0
    1a26:	ee 0f       	add	r30, r30
    1a28:	ff 1f       	adc	r31, r31
    1a2a:	ee 0f       	add	r30, r30
    1a2c:	ff 1f       	adc	r31, r31
    1a2e:	e8 54       	subi	r30, 0x48	; 72
    1a30:	fd 4f       	sbci	r31, 0xFD	; 253
    1a32:	4b e0       	ldi	r20, 0x0B	; 11
    1a34:	52 e0       	ldi	r21, 0x02	; 2
    1a36:	66 e9       	ldi	r22, 0x96	; 150
    1a38:	70 e0       	ldi	r23, 0x00	; 0
    1a3a:	40 83       	st	Z, r20
    1a3c:	51 83       	std	Z+1, r21	; 0x01
    1a3e:	62 83       	std	Z+2, r22	; 0x02
    1a40:	73 83       	std	Z+3, r23	; 0x03
            toneNum++;
    1a42:	8f 5f       	subi	r24, 0xFF	; 255
    1a44:	80 93 38 03 	sts	0x0338, r24	; 0x800338 <_ZN10Soundboard10melodyListE+0x80>
     * @param duration Duration of tone in milliseconds
     * 
     * @return False if sound is full, true otherwise.
     */
    bool addTone(tone singleTone, uint16_t toneDuration){
        if (toneNum < soundLength && finished == false){
    1a48:	80 91 38 03 	lds	r24, 0x0338	; 0x800338 <_ZN10Soundboard10melodyListE+0x80>
    1a4c:	80 32       	cpi	r24, 0x20	; 32
    1a4e:	b8 f4       	brcc	.+46     	; 0x1a7e <_ZN10Soundboard12initPlaylistEv+0x6c0>
    1a50:	90 91 39 03 	lds	r25, 0x0339	; 0x800339 <_ZN10Soundboard10melodyListE+0x81>
    1a54:	91 11       	cpse	r25, r1
    1a56:	13 c0       	rjmp	.+38     	; 0x1a7e <_ZN10Soundboard12initPlaylistEv+0x6c0>
            toneList[toneNum] = toneRecord(singleTone, toneDuration);
    1a58:	e8 2f       	mov	r30, r24
    1a5a:	f0 e0       	ldi	r31, 0x00	; 0
    1a5c:	ee 0f       	add	r30, r30
    1a5e:	ff 1f       	adc	r31, r31
    1a60:	ee 0f       	add	r30, r30
    1a62:	ff 1f       	adc	r31, r31
    1a64:	e8 54       	subi	r30, 0x48	; 72
    1a66:	fd 4f       	sbci	r31, 0xFD	; 253
    1a68:	48 eb       	ldi	r20, 0xB8	; 184
    1a6a:	51 e0       	ldi	r21, 0x01	; 1
    1a6c:	68 ee       	ldi	r22, 0xE8	; 232
    1a6e:	73 e0       	ldi	r23, 0x03	; 3
    1a70:	40 83       	st	Z, r20
    1a72:	51 83       	std	Z+1, r21	; 0x01
    1a74:	62 83       	std	Z+2, r22	; 0x02
    1a76:	73 83       	std	Z+3, r23	; 0x03
            toneNum++;
    1a78:	8f 5f       	subi	r24, 0xFF	; 255
    1a7a:	80 93 38 03 	sts	0x0338, r24	; 0x800338 <_ZN10Soundboard10melodyListE+0x80>
     * @param duration Duration of tone in milliseconds
     * 
     * @return False if sound is full, true otherwise.
     */
    bool addTone(tone singleTone, uint16_t toneDuration){
        if (toneNum < soundLength && finished == false){
    1a7e:	80 91 38 03 	lds	r24, 0x0338	; 0x800338 <_ZN10Soundboard10melodyListE+0x80>
    1a82:	80 32       	cpi	r24, 0x20	; 32
    1a84:	b8 f4       	brcc	.+46     	; 0x1ab4 <_ZN10Soundboard12initPlaylistEv+0x6f6>
    1a86:	90 91 39 03 	lds	r25, 0x0339	; 0x800339 <_ZN10Soundboard10melodyListE+0x81>
    1a8a:	91 11       	cpse	r25, r1
    1a8c:	13 c0       	rjmp	.+38     	; 0x1ab4 <_ZN10Soundboard12initPlaylistEv+0x6f6>
            toneList[toneNum] = toneRecord(singleTone, toneDuration);
    1a8e:	e8 2f       	mov	r30, r24
    1a90:	f0 e0       	ldi	r31, 0x00	; 0
    1a92:	ee 0f       	add	r30, r30
    1a94:	ff 1f       	adc	r31, r31
    1a96:	ee 0f       	add	r30, r30
    1a98:	ff 1f       	adc	r31, r31
    1a9a:	e8 54       	subi	r30, 0x48	; 72
    1a9c:	fd 4f       	sbci	r31, 0xFD	; 253
    1a9e:	43 e9       	ldi	r20, 0x93	; 147
    1aa0:	52 e0       	ldi	r21, 0x02	; 2
    1aa2:	64 ef       	ldi	r22, 0xF4	; 244
    1aa4:	71 e0       	ldi	r23, 0x01	; 1
    1aa6:	40 83       	st	Z, r20
    1aa8:	51 83       	std	Z+1, r21	; 0x01
    1aaa:	62 83       	std	Z+2, r22	; 0x02
    1aac:	73 83       	std	Z+3, r23	; 0x03
            toneNum++;
    1aae:	8f 5f       	subi	r24, 0xFF	; 255
    1ab0:	80 93 38 03 	sts	0x0338, r24	; 0x800338 <_ZN10Soundboard10melodyListE+0x80>
     * @param duration Duration of tone in milliseconds
     * 
     * @return False if sound is full, true otherwise.
     */
    bool addTone(tone singleTone, uint16_t toneDuration){
        if (toneNum < soundLength && finished == false){
    1ab4:	80 91 38 03 	lds	r24, 0x0338	; 0x800338 <_ZN10Soundboard10melodyListE+0x80>
    1ab8:	80 32       	cpi	r24, 0x20	; 32
    1aba:	b8 f4       	brcc	.+46     	; 0x1aea <_ZN10Soundboard12initPlaylistEv+0x72c>
    1abc:	90 91 39 03 	lds	r25, 0x0339	; 0x800339 <_ZN10Soundboard10melodyListE+0x81>
    1ac0:	91 11       	cpse	r25, r1
    1ac2:	13 c0       	rjmp	.+38     	; 0x1aea <_ZN10Soundboard12initPlaylistEv+0x72c>
            toneList[toneNum] = toneRecord(singleTone, toneDuration);
    1ac4:	e8 2f       	mov	r30, r24
    1ac6:	f0 e0       	ldi	r31, 0x00	; 0
    1ac8:	ee 0f       	add	r30, r30
    1aca:	ff 1f       	adc	r31, r31
    1acc:	ee 0f       	add	r30, r30
    1ace:	ff 1f       	adc	r31, r31
    1ad0:	e8 54       	subi	r30, 0x48	; 72
    1ad2:	fd 4f       	sbci	r31, 0xFD	; 253
    1ad4:	43 e9       	ldi	r20, 0x93	; 147
    1ad6:	52 e0       	ldi	r21, 0x02	; 2
    1ad8:	64 ef       	ldi	r22, 0xF4	; 244
    1ada:	71 e0       	ldi	r23, 0x01	; 1
    1adc:	40 83       	st	Z, r20
    1ade:	51 83       	std	Z+1, r21	; 0x01
    1ae0:	62 83       	std	Z+2, r22	; 0x02
    1ae2:	73 83       	std	Z+3, r23	; 0x03
            toneNum++;
    1ae4:	8f 5f       	subi	r24, 0xFF	; 255
    1ae6:	80 93 38 03 	sts	0x0338, r24	; 0x800338 <_ZN10Soundboard10melodyListE+0x80>
     * @param duration Duration of tone in milliseconds
     * 
     * @return False if sound is full, true otherwise.
     */
    bool addTone(tone singleTone, uint16_t toneDuration){
        if (toneNum < soundLength && finished == false){
    1aea:	80 91 38 03 	lds	r24, 0x0338	; 0x800338 <_ZN10Soundboard10melodyListE+0x80>
    1aee:	80 32       	cpi	r24, 0x20	; 32
    1af0:	b8 f4       	brcc	.+46     	; 0x1b20 <_ZN10Soundboard12initPlaylistEv+0x762>
    1af2:	90 91 39 03 	lds	r25, 0x0339	; 0x800339 <_ZN10Soundboard10melodyListE+0x81>
    1af6:	91 11       	cpse	r25, r1
    1af8:	13 c0       	rjmp	.+38     	; 0x1b20 <_ZN10Soundboard12initPlaylistEv+0x762>
            toneList[toneNum] = toneRecord(singleTone, toneDuration);
    1afa:	e8 2f       	mov	r30, r24
    1afc:	f0 e0       	ldi	r31, 0x00	; 0
    1afe:	ee 0f       	add	r30, r30
    1b00:	ff 1f       	adc	r31, r31
    1b02:	ee 0f       	add	r30, r30
    1b04:	ff 1f       	adc	r31, r31
    1b06:	e8 54       	subi	r30, 0x48	; 72
    1b08:	fd 4f       	sbci	r31, 0xFD	; 253
    1b0a:	43 e9       	ldi	r20, 0x93	; 147
    1b0c:	52 e0       	ldi	r21, 0x02	; 2
    1b0e:	64 ef       	ldi	r22, 0xF4	; 244
    1b10:	71 e0       	ldi	r23, 0x01	; 1
    1b12:	40 83       	st	Z, r20
    1b14:	51 83       	std	Z+1, r21	; 0x01
    1b16:	62 83       	std	Z+2, r22	; 0x02
    1b18:	73 83       	std	Z+3, r23	; 0x03
            toneNum++;
    1b1a:	8f 5f       	subi	r24, 0xFF	; 255
    1b1c:	80 93 38 03 	sts	0x0338, r24	; 0x800338 <_ZN10Soundboard10melodyListE+0x80>
     * @param duration Duration of tone in milliseconds
     * 
     * @return False if sound is full, true otherwise.
     */
    bool addTone(tone singleTone, uint16_t toneDuration){
        if (toneNum < soundLength && finished == false){
    1b20:	80 91 38 03 	lds	r24, 0x0338	; 0x800338 <_ZN10Soundboard10melodyListE+0x80>
    1b24:	80 32       	cpi	r24, 0x20	; 32
    1b26:	b8 f4       	brcc	.+46     	; 0x1b56 <_ZN10Soundboard12initPlaylistEv+0x798>
    1b28:	90 91 39 03 	lds	r25, 0x0339	; 0x800339 <_ZN10Soundboard10melodyListE+0x81>
    1b2c:	91 11       	cpse	r25, r1
    1b2e:	13 c0       	rjmp	.+38     	; 0x1b56 <_ZN10Soundboard12initPlaylistEv+0x798>
            toneList[toneNum] = toneRecord(singleTone, toneDuration);
    1b30:	e8 2f       	mov	r30, r24
    1b32:	f0 e0       	ldi	r31, 0x00	; 0
    1b34:	ee 0f       	add	r30, r30
    1b36:	ff 1f       	adc	r31, r31
    1b38:	ee 0f       	add	r30, r30
    1b3a:	ff 1f       	adc	r31, r31
    1b3c:	e8 54       	subi	r30, 0x48	; 72
    1b3e:	fd 4f       	sbci	r31, 0xFD	; 253
    1b40:	4a eb       	ldi	r20, 0xBA	; 186
    1b42:	52 e0       	ldi	r21, 0x02	; 2
    1b44:	6e e5       	ldi	r22, 0x5E	; 94
    1b46:	71 e0       	ldi	r23, 0x01	; 1
    1b48:	40 83       	st	Z, r20
    1b4a:	51 83       	std	Z+1, r21	; 0x01
    1b4c:	62 83       	std	Z+2, r22	; 0x02
    1b4e:	73 83       	std	Z+3, r23	; 0x03
            toneNum++;
    1b50:	8f 5f       	subi	r24, 0xFF	; 255
    1b52:	80 93 38 03 	sts	0x0338, r24	; 0x800338 <_ZN10Soundboard10melodyListE+0x80>
     * @param duration Duration of tone in milliseconds
     * 
     * @return False if sound is full, true otherwise.
     */
    bool addTone(tone singleTone, uint16_t toneDuration){
        if (toneNum < soundLength && finished == false){
    1b56:	80 91 38 03 	lds	r24, 0x0338	; 0x800338 <_ZN10Soundboard10melodyListE+0x80>
    1b5a:	80 32       	cpi	r24, 0x20	; 32
    1b5c:	b8 f4       	brcc	.+46     	; 0x1b8c <_ZN10Soundboard12initPlaylistEv+0x7ce>
    1b5e:	90 91 39 03 	lds	r25, 0x0339	; 0x800339 <_ZN10Soundboard10melodyListE+0x81>
    1b62:	91 11       	cpse	r25, r1
    1b64:	13 c0       	rjmp	.+38     	; 0x1b8c <_ZN10Soundboard12initPlaylistEv+0x7ce>
            toneList[toneNum] = toneRecord(singleTone, toneDuration);
    1b66:	e8 2f       	mov	r30, r24
    1b68:	f0 e0       	ldi	r31, 0x00	; 0
    1b6a:	ee 0f       	add	r30, r30
    1b6c:	ff 1f       	adc	r31, r31
    1b6e:	ee 0f       	add	r30, r30
    1b70:	ff 1f       	adc	r31, r31
    1b72:	e8 54       	subi	r30, 0x48	; 72
    1b74:	fd 4f       	sbci	r31, 0xFD	; 253
    1b76:	4b e0       	ldi	r20, 0x0B	; 11
    1b78:	52 e0       	ldi	r21, 0x02	; 2
    1b7a:	66 e9       	ldi	r22, 0x96	; 150
    1b7c:	70 e0       	ldi	r23, 0x00	; 0
    1b7e:	40 83       	st	Z, r20
    1b80:	51 83       	std	Z+1, r21	; 0x01
    1b82:	62 83       	std	Z+2, r22	; 0x02
    1b84:	73 83       	std	Z+3, r23	; 0x03
            toneNum++;
    1b86:	8f 5f       	subi	r24, 0xFF	; 255
    1b88:	80 93 38 03 	sts	0x0338, r24	; 0x800338 <_ZN10Soundboard10melodyListE+0x80>
     * @param duration Duration of tone in milliseconds
     * 
     * @return False if sound is full, true otherwise.
     */
    bool addTone(tone singleTone, uint16_t toneDuration){
        if (toneNum < soundLength && finished == false){
    1b8c:	80 91 38 03 	lds	r24, 0x0338	; 0x800338 <_ZN10Soundboard10melodyListE+0x80>
    1b90:	80 32       	cpi	r24, 0x20	; 32
    1b92:	b8 f4       	brcc	.+46     	; 0x1bc2 <_ZN10Soundboard12initPlaylistEv+0x804>
    1b94:	90 91 39 03 	lds	r25, 0x0339	; 0x800339 <_ZN10Soundboard10melodyListE+0x81>
    1b98:	91 11       	cpse	r25, r1
    1b9a:	13 c0       	rjmp	.+38     	; 0x1bc2 <_ZN10Soundboard12initPlaylistEv+0x804>
            toneList[toneNum] = toneRecord(singleTone, toneDuration);
    1b9c:	e8 2f       	mov	r30, r24
    1b9e:	f0 e0       	ldi	r31, 0x00	; 0
    1ba0:	ee 0f       	add	r30, r30
    1ba2:	ff 1f       	adc	r31, r31
    1ba4:	ee 0f       	add	r30, r30
    1ba6:	ff 1f       	adc	r31, r31
    1ba8:	e8 54       	subi	r30, 0x48	; 72
    1baa:	fd 4f       	sbci	r31, 0xFD	; 253
    1bac:	4f e9       	ldi	r20, 0x9F	; 159
    1bae:	51 e0       	ldi	r21, 0x01	; 1
    1bb0:	64 ef       	ldi	r22, 0xF4	; 244
    1bb2:	71 e0       	ldi	r23, 0x01	; 1
    1bb4:	40 83       	st	Z, r20
    1bb6:	51 83       	std	Z+1, r21	; 0x01
    1bb8:	62 83       	std	Z+2, r22	; 0x02
    1bba:	73 83       	std	Z+3, r23	; 0x03
            toneNum++;
    1bbc:	8f 5f       	subi	r24, 0xFF	; 255
    1bbe:	80 93 38 03 	sts	0x0338, r24	; 0x800338 <_ZN10Soundboard10melodyListE+0x80>
     * @param duration Duration of tone in milliseconds
     * 
     * @return False if sound is full, true otherwise.
     */
    bool addTone(tone singleTone, uint16_t toneDuration){
        if (toneNum < soundLength && finished == false){
    1bc2:	80 91 38 03 	lds	r24, 0x0338	; 0x800338 <_ZN10Soundboard10melodyListE+0x80>
    1bc6:	80 32       	cpi	r24, 0x20	; 32
    1bc8:	b8 f4       	brcc	.+46     	; 0x1bf8 <_ZN10Soundboard12initPlaylistEv+0x83a>
    1bca:	90 91 39 03 	lds	r25, 0x0339	; 0x800339 <_ZN10Soundboard10melodyListE+0x81>
    1bce:	91 11       	cpse	r25, r1
    1bd0:	13 c0       	rjmp	.+38     	; 0x1bf8 <_ZN10Soundboard12initPlaylistEv+0x83a>
            toneList[toneNum] = toneRecord(singleTone, toneDuration);
    1bd2:	e8 2f       	mov	r30, r24
    1bd4:	f0 e0       	ldi	r31, 0x00	; 0
    1bd6:	ee 0f       	add	r30, r30
    1bd8:	ff 1f       	adc	r31, r31
    1bda:	ee 0f       	add	r30, r30
    1bdc:	ff 1f       	adc	r31, r31
    1bde:	e8 54       	subi	r30, 0x48	; 72
    1be0:	fd 4f       	sbci	r31, 0xFD	; 253
    1be2:	4d e5       	ldi	r20, 0x5D	; 93
    1be4:	51 e0       	ldi	r21, 0x01	; 1
    1be6:	6e e5       	ldi	r22, 0x5E	; 94
    1be8:	71 e0       	ldi	r23, 0x01	; 1
    1bea:	40 83       	st	Z, r20
    1bec:	51 83       	std	Z+1, r21	; 0x01
    1bee:	62 83       	std	Z+2, r22	; 0x02
    1bf0:	73 83       	std	Z+3, r23	; 0x03
            toneNum++;
    1bf2:	8f 5f       	subi	r24, 0xFF	; 255
    1bf4:	80 93 38 03 	sts	0x0338, r24	; 0x800338 <_ZN10Soundboard10melodyListE+0x80>
     * @param duration Duration of tone in milliseconds
     * 
     * @return False if sound is full, true otherwise.
     */
    bool addTone(tone singleTone, uint16_t toneDuration){
        if (toneNum < soundLength && finished == false){
    1bf8:	80 91 38 03 	lds	r24, 0x0338	; 0x800338 <_ZN10Soundboard10melodyListE+0x80>
    1bfc:	80 32       	cpi	r24, 0x20	; 32
    1bfe:	b8 f4       	brcc	.+46     	; 0x1c2e <_ZN10Soundboard12initPlaylistEv+0x870>
    1c00:	90 91 39 03 	lds	r25, 0x0339	; 0x800339 <_ZN10Soundboard10melodyListE+0x81>
    1c04:	91 11       	cpse	r25, r1
    1c06:	13 c0       	rjmp	.+38     	; 0x1c2e <_ZN10Soundboard12initPlaylistEv+0x870>
            toneList[toneNum] = toneRecord(singleTone, toneDuration);
    1c08:	e8 2f       	mov	r30, r24
    1c0a:	f0 e0       	ldi	r31, 0x00	; 0
    1c0c:	ee 0f       	add	r30, r30
    1c0e:	ff 1f       	adc	r31, r31
    1c10:	ee 0f       	add	r30, r30
    1c12:	ff 1f       	adc	r31, r31
    1c14:	e8 54       	subi	r30, 0x48	; 72
    1c16:	fd 4f       	sbci	r31, 0xFD	; 253
    1c18:	4b e0       	ldi	r20, 0x0B	; 11
    1c1a:	52 e0       	ldi	r21, 0x02	; 2
    1c1c:	66 e9       	ldi	r22, 0x96	; 150
    1c1e:	70 e0       	ldi	r23, 0x00	; 0
    1c20:	40 83       	st	Z, r20
    1c22:	51 83       	std	Z+1, r21	; 0x01
    1c24:	62 83       	std	Z+2, r22	; 0x02
    1c26:	73 83       	std	Z+3, r23	; 0x03
            toneNum++;
    1c28:	8f 5f       	subi	r24, 0xFF	; 255
    1c2a:	80 93 38 03 	sts	0x0338, r24	; 0x800338 <_ZN10Soundboard10melodyListE+0x80>
     * @param duration Duration of tone in milliseconds
     * 
     * @return False if sound is full, true otherwise.
     */
    bool addTone(tone singleTone, uint16_t toneDuration){
        if (toneNum < soundLength && finished == false){
    1c2e:	80 91 38 03 	lds	r24, 0x0338	; 0x800338 <_ZN10Soundboard10melodyListE+0x80>
    1c32:	80 32       	cpi	r24, 0x20	; 32
    1c34:	b8 f4       	brcc	.+46     	; 0x1c64 <_ZN10Soundboard12initPlaylistEv+0x8a6>
    1c36:	90 91 39 03 	lds	r25, 0x0339	; 0x800339 <_ZN10Soundboard10melodyListE+0x81>
    1c3a:	91 11       	cpse	r25, r1
    1c3c:	13 c0       	rjmp	.+38     	; 0x1c64 <_ZN10Soundboard12initPlaylistEv+0x8a6>
            toneList[toneNum] = toneRecord(singleTone, toneDuration);
    1c3e:	e8 2f       	mov	r30, r24
    1c40:	f0 e0       	ldi	r31, 0x00	; 0
    1c42:	ee 0f       	add	r30, r30
    1c44:	ff 1f       	adc	r31, r31
    1c46:	ee 0f       	add	r30, r30
    1c48:	ff 1f       	adc	r31, r31
    1c4a:	e8 54       	subi	r30, 0x48	; 72
    1c4c:	fd 4f       	sbci	r31, 0xFD	; 253
    1c4e:	48 eb       	ldi	r20, 0xB8	; 184
    1c50:	51 e0       	ldi	r21, 0x01	; 1
    1c52:	68 ee       	ldi	r22, 0xE8	; 232
    1c54:	73 e0       	ldi	r23, 0x03	; 3
    1c56:	40 83       	st	Z, r20
    1c58:	51 83       	std	Z+1, r21	; 0x01
    1c5a:	62 83       	std	Z+2, r22	; 0x02
    1c5c:	73 83       	std	Z+3, r23	; 0x03
            toneNum++;
    1c5e:	8f 5f       	subi	r24, 0xFF	; 255
    1c60:	80 93 38 03 	sts	0x0338, r24	; 0x800338 <_ZN10Soundboard10melodyListE+0x80>
     * @param duration Duration of tone in milliseconds
     * 
     * @return False if sound is full, true otherwise.
     */
    bool addTone(tone singleTone, uint16_t toneDuration){
        if (toneNum < soundLength && finished == false){
    1c64:	80 91 bb 03 	lds	r24, 0x03BB	; 0x8003bb <_ZN10Soundboard10melodyListE+0x103>
    1c68:	80 32       	cpi	r24, 0x20	; 32
    1c6a:	b8 f4       	brcc	.+46     	; 0x1c9a <_ZN10Soundboard12initPlaylistEv+0x8dc>
    1c6c:	90 91 bc 03 	lds	r25, 0x03BC	; 0x8003bc <_ZN10Soundboard10melodyListE+0x104>
    1c70:	91 11       	cpse	r25, r1
    1c72:	13 c0       	rjmp	.+38     	; 0x1c9a <_ZN10Soundboard12initPlaylistEv+0x8dc>
            toneList[toneNum] = toneRecord(singleTone, toneDuration);
    1c74:	e8 2f       	mov	r30, r24
    1c76:	f0 e0       	ldi	r31, 0x00	; 0
    1c78:	ee 0f       	add	r30, r30
    1c7a:	ff 1f       	adc	r31, r31
    1c7c:	ee 0f       	add	r30, r30
    1c7e:	ff 1f       	adc	r31, r31
    1c80:	e5 5c       	subi	r30, 0xC5	; 197
    1c82:	fc 4f       	sbci	r31, 0xFC	; 252
    1c84:	40 e2       	ldi	r20, 0x20	; 32
    1c86:	53 e0       	ldi	r21, 0x03	; 3
    1c88:	60 e5       	ldi	r22, 0x50	; 80
    1c8a:	70 e0       	ldi	r23, 0x00	; 0
    1c8c:	40 83       	st	Z, r20
    1c8e:	51 83       	std	Z+1, r21	; 0x01
    1c90:	62 83       	std	Z+2, r22	; 0x02
    1c92:	73 83       	std	Z+3, r23	; 0x03
            toneNum++;
    1c94:	8f 5f       	subi	r24, 0xFF	; 255
    1c96:	80 93 bb 03 	sts	0x03BB, r24	; 0x8003bb <_ZN10Soundboard10melodyListE+0x103>
     * @param duration Duration of tone in milliseconds
     * 
     * @return False if sound is full, true otherwise.
     */
    bool addTone(tone singleTone, uint16_t toneDuration){
        if (toneNum < soundLength && finished == false){
    1c9a:	80 91 bb 03 	lds	r24, 0x03BB	; 0x8003bb <_ZN10Soundboard10melodyListE+0x103>
    1c9e:	80 32       	cpi	r24, 0x20	; 32
    1ca0:	b8 f4       	brcc	.+46     	; 0x1cd0 <_ZN10Soundboard12initPlaylistEv+0x912>
    1ca2:	90 91 bc 03 	lds	r25, 0x03BC	; 0x8003bc <_ZN10Soundboard10melodyListE+0x104>
    1ca6:	91 11       	cpse	r25, r1
    1ca8:	13 c0       	rjmp	.+38     	; 0x1cd0 <_ZN10Soundboard12initPlaylistEv+0x912>
            toneList[toneNum] = toneRecord(singleTone, toneDuration);
    1caa:	e8 2f       	mov	r30, r24
    1cac:	f0 e0       	ldi	r31, 0x00	; 0
    1cae:	ee 0f       	add	r30, r30
    1cb0:	ff 1f       	adc	r31, r31
    1cb2:	ee 0f       	add	r30, r30
    1cb4:	ff 1f       	adc	r31, r31
    1cb6:	e5 5c       	subi	r30, 0xC5	; 197
    1cb8:	fc 4f       	sbci	r31, 0xFC	; 252
    1cba:	40 eb       	ldi	r20, 0xB0	; 176
    1cbc:	54 e0       	ldi	r21, 0x04	; 4
    1cbe:	6c e3       	ldi	r22, 0x3C	; 60
    1cc0:	70 e0       	ldi	r23, 0x00	; 0
    1cc2:	40 83       	st	Z, r20
    1cc4:	51 83       	std	Z+1, r21	; 0x01
    1cc6:	62 83       	std	Z+2, r22	; 0x02
    1cc8:	73 83       	std	Z+3, r23	; 0x03
            toneNum++;
    1cca:	8f 5f       	subi	r24, 0xFF	; 255
    1ccc:	80 93 bb 03 	sts	0x03BB, r24	; 0x8003bb <_ZN10Soundboard10melodyListE+0x103>
     * @param duration Duration of tone in milliseconds
     * 
     * @return False if sound is full, true otherwise.
     */
    bool addTone(tone singleTone, uint16_t toneDuration){
        if (toneNum < soundLength && finished == false){
    1cd0:	80 91 bb 03 	lds	r24, 0x03BB	; 0x8003bb <_ZN10Soundboard10melodyListE+0x103>
    1cd4:	80 32       	cpi	r24, 0x20	; 32
    1cd6:	b8 f4       	brcc	.+46     	; 0x1d06 <_ZN10Soundboard12initPlaylistEv+0x948>
    1cd8:	90 91 bc 03 	lds	r25, 0x03BC	; 0x8003bc <_ZN10Soundboard10melodyListE+0x104>
    1cdc:	91 11       	cpse	r25, r1
    1cde:	13 c0       	rjmp	.+38     	; 0x1d06 <_ZN10Soundboard12initPlaylistEv+0x948>
            toneList[toneNum] = toneRecord(singleTone, toneDuration);
    1ce0:	e8 2f       	mov	r30, r24
    1ce2:	f0 e0       	ldi	r31, 0x00	; 0
    1ce4:	ee 0f       	add	r30, r30
    1ce6:	ff 1f       	adc	r31, r31
    1ce8:	ee 0f       	add	r30, r30
    1cea:	ff 1f       	adc	r31, r31
    1cec:	e5 5c       	subi	r30, 0xC5	; 197
    1cee:	fc 4f       	sbci	r31, 0xFC	; 252
    1cf0:	48 e5       	ldi	r20, 0x58	; 88
    1cf2:	52 e0       	ldi	r21, 0x02	; 2
    1cf4:	66 e4       	ldi	r22, 0x46	; 70
    1cf6:	70 e0       	ldi	r23, 0x00	; 0
    1cf8:	40 83       	st	Z, r20
    1cfa:	51 83       	std	Z+1, r21	; 0x01
    1cfc:	62 83       	std	Z+2, r22	; 0x02
    1cfe:	73 83       	std	Z+3, r23	; 0x03
            toneNum++;
    1d00:	8f 5f       	subi	r24, 0xFF	; 255
    1d02:	80 93 bb 03 	sts	0x03BB, r24	; 0x8003bb <_ZN10Soundboard10melodyListE+0x103>
     * @param duration Duration of tone in milliseconds
     * 
     * @return False if sound is full, true otherwise.
     */
    bool addTone(tone singleTone, uint16_t toneDuration){
        if (toneNum < soundLength && finished == false){
    1d06:	80 91 bb 03 	lds	r24, 0x03BB	; 0x8003bb <_ZN10Soundboard10melodyListE+0x103>
    1d0a:	80 32       	cpi	r24, 0x20	; 32
    1d0c:	b8 f4       	brcc	.+46     	; 0x1d3c <_ZN10Soundboard12initPlaylistEv+0x97e>
    1d0e:	90 91 bc 03 	lds	r25, 0x03BC	; 0x8003bc <_ZN10Soundboard10melodyListE+0x104>
    1d12:	91 11       	cpse	r25, r1
    1d14:	13 c0       	rjmp	.+38     	; 0x1d3c <_ZN10Soundboard12initPlaylistEv+0x97e>
            toneList[toneNum] = toneRecord(singleTone, toneDuration);
    1d16:	e8 2f       	mov	r30, r24
    1d18:	f0 e0       	ldi	r31, 0x00	; 0
    1d1a:	ee 0f       	add	r30, r30
    1d1c:	ff 1f       	adc	r31, r31
    1d1e:	ee 0f       	add	r30, r30
    1d20:	ff 1f       	adc	r31, r31
    1d22:	e5 5c       	subi	r30, 0xC5	; 197
    1d24:	fc 4f       	sbci	r31, 0xFC	; 252
    1d26:	48 e7       	ldi	r20, 0x78	; 120
    1d28:	55 e0       	ldi	r21, 0x05	; 5
    1d2a:	62 e3       	ldi	r22, 0x32	; 50
    1d2c:	70 e0       	ldi	r23, 0x00	; 0
    1d2e:	40 83       	st	Z, r20
    1d30:	51 83       	std	Z+1, r21	; 0x01
    1d32:	62 83       	std	Z+2, r22	; 0x02
    1d34:	73 83       	std	Z+3, r23	; 0x03
            toneNum++;
    1d36:	8f 5f       	subi	r24, 0xFF	; 255
    1d38:	80 93 bb 03 	sts	0x03BB, r24	; 0x8003bb <_ZN10Soundboard10melodyListE+0x103>
     * @param duration Duration of tone in milliseconds
     * 
     * @return False if sound is full, true otherwise.
     */
    bool addTone(tone singleTone, uint16_t toneDuration){
        if (toneNum < soundLength && finished == false){
    1d3c:	80 91 bb 03 	lds	r24, 0x03BB	; 0x8003bb <_ZN10Soundboard10melodyListE+0x103>
    1d40:	80 32       	cpi	r24, 0x20	; 32
    1d42:	b8 f4       	brcc	.+46     	; 0x1d72 <_ZN10Soundboard12initPlaylistEv+0x9b4>
    1d44:	90 91 bc 03 	lds	r25, 0x03BC	; 0x8003bc <_ZN10Soundboard10melodyListE+0x104>
    1d48:	91 11       	cpse	r25, r1
    1d4a:	13 c0       	rjmp	.+38     	; 0x1d72 <_ZN10Soundboard12initPlaylistEv+0x9b4>
            toneList[toneNum] = toneRecord(singleTone, toneDuration);
    1d4c:	e8 2f       	mov	r30, r24
    1d4e:	f0 e0       	ldi	r31, 0x00	; 0
    1d50:	ee 0f       	add	r30, r30
    1d52:	ff 1f       	adc	r31, r31
    1d54:	ee 0f       	add	r30, r30
    1d56:	ff 1f       	adc	r31, r31
    1d58:	e5 5c       	subi	r30, 0xC5	; 197
    1d5a:	fc 4f       	sbci	r31, 0xFC	; 252
    1d5c:	48 ee       	ldi	r20, 0xE8	; 232
    1d5e:	53 e0       	ldi	r21, 0x03	; 3
    1d60:	60 e5       	ldi	r22, 0x50	; 80
    1d62:	70 e0       	ldi	r23, 0x00	; 0
    1d64:	40 83       	st	Z, r20
    1d66:	51 83       	std	Z+1, r21	; 0x01
    1d68:	62 83       	std	Z+2, r22	; 0x02
    1d6a:	73 83       	std	Z+3, r23	; 0x03
            toneNum++;
    1d6c:	8f 5f       	subi	r24, 0xFF	; 255
    1d6e:	80 93 bb 03 	sts	0x03BB, r24	; 0x8003bb <_ZN10Soundboard10melodyListE+0x103>
     * @param duration Duration of tone in milliseconds
     * 
     * @return False if sound is full, true otherwise.
     */
    bool addTone(tone singleTone, uint16_t toneDuration){
        if (toneNum < soundLength && finished == false){
    1d72:	80 91 bb 03 	lds	r24, 0x03BB	; 0x8003bb <_ZN10Soundboard10melodyListE+0x103>
    1d76:	80 32       	cpi	r24, 0x20	; 32
    1d78:	b8 f4       	brcc	.+46     	; 0x1da8 <_ZN10Soundboard12initPlaylistEv+0x9ea>
    1d7a:	90 91 bc 03 	lds	r25, 0x03BC	; 0x8003bc <_ZN10Soundboard10melodyListE+0x104>
    1d7e:	91 11       	cpse	r25, r1
    1d80:	13 c0       	rjmp	.+38     	; 0x1da8 <_ZN10Soundboard12initPlaylistEv+0x9ea>
            toneList[toneNum] = toneRecord(singleTone, toneDuration);
    1d82:	e8 2f       	mov	r30, r24
    1d84:	f0 e0       	ldi	r31, 0x00	; 0
    1d86:	ee 0f       	add	r30, r30
    1d88:	ff 1f       	adc	r31, r31
    1d8a:	ee 0f       	add	r30, r30
    1d8c:	ff 1f       	adc	r31, r31
    1d8e:	e5 5c       	subi	r30, 0xC5	; 197
    1d90:	fc 4f       	sbci	r31, 0xFC	; 252
    1d92:	40 e0       	ldi	r20, 0x00	; 0
    1d94:	50 e0       	ldi	r21, 0x00	; 0
    1d96:	6e e1       	ldi	r22, 0x1E	; 30
    1d98:	70 e0       	ldi	r23, 0x00	; 0
    1d9a:	40 83       	st	Z, r20
    1d9c:	51 83       	std	Z+1, r21	; 0x01
    1d9e:	62 83       	std	Z+2, r22	; 0x02
    1da0:	73 83       	std	Z+3, r23	; 0x03
            toneNum++;
    1da2:	8f 5f       	subi	r24, 0xFF	; 255
    1da4:	80 93 bb 03 	sts	0x03BB, r24	; 0x8003bb <_ZN10Soundboard10melodyListE+0x103>
     * @param duration Duration of tone in milliseconds
     * 
     * @return False if sound is full, true otherwise.
     */
    bool addTone(tone singleTone, uint16_t toneDuration){
        if (toneNum < soundLength && finished == false){
    1da8:	80 91 bb 03 	lds	r24, 0x03BB	; 0x8003bb <_ZN10Soundboard10melodyListE+0x103>
    1dac:	80 32       	cpi	r24, 0x20	; 32
    1dae:	b8 f4       	brcc	.+46     	; 0x1dde <_ZN10Soundboard12initPlaylistEv+0xa20>
    1db0:	90 91 bc 03 	lds	r25, 0x03BC	; 0x8003bc <_ZN10Soundboard10melodyListE+0x104>
    1db4:	91 11       	cpse	r25, r1
    1db6:	13 c0       	rjmp	.+38     	; 0x1dde <_ZN10Soundboard12initPlaylistEv+0xa20>
            toneList[toneNum] = toneRecord(singleTone, toneDuration);
    1db8:	e8 2f       	mov	r30, r24
    1dba:	f0 e0       	ldi	r31, 0x00	; 0
    1dbc:	ee 0f       	add	r30, r30
    1dbe:	ff 1f       	adc	r31, r31
    1dc0:	ee 0f       	add	r30, r30
    1dc2:	ff 1f       	adc	r31, r31
    1dc4:	e5 5c       	subi	r30, 0xC5	; 197
    1dc6:	fc 4f       	sbci	r31, 0xFC	; 252
    1dc8:	4c ed       	ldi	r20, 0xDC	; 220
    1dca:	55 e0       	ldi	r21, 0x05	; 5
    1dcc:	68 e2       	ldi	r22, 0x28	; 40
    1dce:	70 e0       	ldi	r23, 0x00	; 0
    1dd0:	40 83       	st	Z, r20
    1dd2:	51 83       	std	Z+1, r21	; 0x01
    1dd4:	62 83       	std	Z+2, r22	; 0x02
    1dd6:	73 83       	std	Z+3, r23	; 0x03
            toneNum++;
    1dd8:	8f 5f       	subi	r24, 0xFF	; 255
    1dda:	80 93 bb 03 	sts	0x03BB, r24	; 0x8003bb <_ZN10Soundboard10melodyListE+0x103>
     * @param duration Duration of tone in milliseconds
     * 
     * @return False if sound is full, true otherwise.
     */
    bool addTone(tone singleTone, uint16_t toneDuration){
        if (toneNum < soundLength && finished == false){
    1dde:	80 91 bb 03 	lds	r24, 0x03BB	; 0x8003bb <_ZN10Soundboard10melodyListE+0x103>
    1de2:	80 32       	cpi	r24, 0x20	; 32
    1de4:	b8 f4       	brcc	.+46     	; 0x1e14 <_ZN10Soundboard12initPlaylistEv+0xa56>
    1de6:	90 91 bc 03 	lds	r25, 0x03BC	; 0x8003bc <_ZN10Soundboard10melodyListE+0x104>
    1dea:	91 11       	cpse	r25, r1
    1dec:	13 c0       	rjmp	.+38     	; 0x1e14 <_ZN10Soundboard12initPlaylistEv+0xa56>
            toneList[toneNum] = toneRecord(singleTone, toneDuration);
    1dee:	e8 2f       	mov	r30, r24
    1df0:	f0 e0       	ldi	r31, 0x00	; 0
    1df2:	ee 0f       	add	r30, r30
    1df4:	ff 1f       	adc	r31, r31
    1df6:	ee 0f       	add	r30, r30
    1df8:	ff 1f       	adc	r31, r31
    1dfa:	e5 5c       	subi	r30, 0xC5	; 197
    1dfc:	fc 4f       	sbci	r31, 0xFC	; 252
    1dfe:	44 e8       	ldi	r20, 0x84	; 132
    1e00:	53 e0       	ldi	r21, 0x03	; 3
    1e02:	6c e3       	ldi	r22, 0x3C	; 60
    1e04:	70 e0       	ldi	r23, 0x00	; 0
    1e06:	40 83       	st	Z, r20
    1e08:	51 83       	std	Z+1, r21	; 0x01
    1e0a:	62 83       	std	Z+2, r22	; 0x02
    1e0c:	73 83       	std	Z+3, r23	; 0x03
            toneNum++;
    1e0e:	8f 5f       	subi	r24, 0xFF	; 255
    1e10:	80 93 bb 03 	sts	0x03BB, r24	; 0x8003bb <_ZN10Soundboard10melodyListE+0x103>
     * @param duration Duration of tone in milliseconds
     * 
     * @return False if sound is full, true otherwise.
     */
    bool addTone(tone singleTone, uint16_t toneDuration){
        if (toneNum < soundLength && finished == false){
    1e14:	80 91 bb 03 	lds	r24, 0x03BB	; 0x8003bb <_ZN10Soundboard10melodyListE+0x103>
    1e18:	80 32       	cpi	r24, 0x20	; 32
    1e1a:	b8 f4       	brcc	.+46     	; 0x1e4a <_ZN10Soundboard12initPlaylistEv+0xa8c>
    1e1c:	90 91 bc 03 	lds	r25, 0x03BC	; 0x8003bc <_ZN10Soundboard10melodyListE+0x104>
    1e20:	91 11       	cpse	r25, r1
    1e22:	13 c0       	rjmp	.+38     	; 0x1e4a <_ZN10Soundboard12initPlaylistEv+0xa8c>
            toneList[toneNum] = toneRecord(singleTone, toneDuration);
    1e24:	e8 2f       	mov	r30, r24
    1e26:	f0 e0       	ldi	r31, 0x00	; 0
    1e28:	ee 0f       	add	r30, r30
    1e2a:	ff 1f       	adc	r31, r31
    1e2c:	ee 0f       	add	r30, r30
    1e2e:	ff 1f       	adc	r31, r31
    1e30:	e5 5c       	subi	r30, 0xC5	; 197
    1e32:	fc 4f       	sbci	r31, 0xFC	; 252
    1e34:	44 e1       	ldi	r20, 0x14	; 20
    1e36:	55 e0       	ldi	r21, 0x05	; 5
    1e38:	62 e3       	ldi	r22, 0x32	; 50
    1e3a:	70 e0       	ldi	r23, 0x00	; 0
    1e3c:	40 83       	st	Z, r20
    1e3e:	51 83       	std	Z+1, r21	; 0x01
    1e40:	62 83       	std	Z+2, r22	; 0x02
    1e42:	73 83       	std	Z+3, r23	; 0x03
            toneNum++;
    1e44:	8f 5f       	subi	r24, 0xFF	; 255
    1e46:	80 93 bb 03 	sts	0x03BB, r24	; 0x8003bb <_ZN10Soundboard10melodyListE+0x103>
     * @param duration Duration of tone in milliseconds
     * 
     * @return False if sound is full, true otherwise.
     */
    bool addTone(tone singleTone, uint16_t toneDuration){
        if (toneNum < soundLength && finished == false){
    1e4a:	80 91 bb 03 	lds	r24, 0x03BB	; 0x8003bb <_ZN10Soundboard10melodyListE+0x103>
    1e4e:	80 32       	cpi	r24, 0x20	; 32
    1e50:	b8 f4       	brcc	.+46     	; 0x1e80 <_ZN10Soundboard12initPlaylistEv+0xac2>
    1e52:	90 91 bc 03 	lds	r25, 0x03BC	; 0x8003bc <_ZN10Soundboard10melodyListE+0x104>
    1e56:	91 11       	cpse	r25, r1
    1e58:	13 c0       	rjmp	.+38     	; 0x1e80 <_ZN10Soundboard12initPlaylistEv+0xac2>
            toneList[toneNum] = toneRecord(singleTone, toneDuration);
    1e5a:	e8 2f       	mov	r30, r24
    1e5c:	f0 e0       	ldi	r31, 0x00	; 0
    1e5e:	ee 0f       	add	r30, r30
    1e60:	ff 1f       	adc	r31, r31
    1e62:	ee 0f       	add	r30, r30
    1e64:	ff 1f       	adc	r31, r31
    1e66:	e5 5c       	subi	r30, 0xC5	; 197
    1e68:	fc 4f       	sbci	r31, 0xFC	; 252
    1e6a:	4c eb       	ldi	r20, 0xBC	; 188
    1e6c:	52 e0       	ldi	r21, 0x02	; 2
    1e6e:	60 e5       	ldi	r22, 0x50	; 80
    1e70:	70 e0       	ldi	r23, 0x00	; 0
    1e72:	40 83       	st	Z, r20
    1e74:	51 83       	std	Z+1, r21	; 0x01
    1e76:	62 83       	std	Z+2, r22	; 0x02
    1e78:	73 83       	std	Z+3, r23	; 0x03
            toneNum++;
    1e7a:	8f 5f       	subi	r24, 0xFF	; 255
    1e7c:	80 93 bb 03 	sts	0x03BB, r24	; 0x8003bb <_ZN10Soundboard10melodyListE+0x103>
     * @param duration Duration of tone in milliseconds
     * 
     * @return False if sound is full, true otherwise.
     */
    bool addTone(tone singleTone, uint16_t toneDuration){
        if (toneNum < soundLength && finished == false){
    1e80:	80 91 bb 03 	lds	r24, 0x03BB	; 0x8003bb <_ZN10Soundboard10melodyListE+0x103>
    1e84:	80 32       	cpi	r24, 0x20	; 32
    1e86:	b8 f4       	brcc	.+46     	; 0x1eb6 <_ZN10Soundboard12initPlaylistEv+0xaf8>
    1e88:	90 91 bc 03 	lds	r25, 0x03BC	; 0x8003bc <_ZN10Soundboard10melodyListE+0x104>
    1e8c:	91 11       	cpse	r25, r1
    1e8e:	13 c0       	rjmp	.+38     	; 0x1eb6 <_ZN10Soundboard12initPlaylistEv+0xaf8>
            toneList[toneNum] = toneRecord(singleTone, toneDuration);
    1e90:	e8 2f       	mov	r30, r24
    1e92:	f0 e0       	ldi	r31, 0x00	; 0
    1e94:	ee 0f       	add	r30, r30
    1e96:	ff 1f       	adc	r31, r31
    1e98:	ee 0f       	add	r30, r30
    1e9a:	ff 1f       	adc	r31, r31
    1e9c:	e5 5c       	subi	r30, 0xC5	; 197
    1e9e:	fc 4f       	sbci	r31, 0xFC	; 252
    1ea0:	40 e4       	ldi	r20, 0x40	; 64
    1ea2:	56 e0       	ldi	r21, 0x06	; 6
    1ea4:	68 e2       	ldi	r22, 0x28	; 40
    1ea6:	70 e0       	ldi	r23, 0x00	; 0
    1ea8:	40 83       	st	Z, r20
    1eaa:	51 83       	std	Z+1, r21	; 0x01
    1eac:	62 83       	std	Z+2, r22	; 0x02
    1eae:	73 83       	std	Z+3, r23	; 0x03
            toneNum++;
    1eb0:	8f 5f       	subi	r24, 0xFF	; 255
    1eb2:	80 93 bb 03 	sts	0x03BB, r24	; 0x8003bb <_ZN10Soundboard10melodyListE+0x103>
     * @param duration Duration of tone in milliseconds
     * 
     * @return False if sound is full, true otherwise.
     */
    bool addTone(tone singleTone, uint16_t toneDuration){
        if (toneNum < soundLength && finished == false){
    1eb6:	80 91 bb 03 	lds	r24, 0x03BB	; 0x8003bb <_ZN10Soundboard10melodyListE+0x103>
    1eba:	80 32       	cpi	r24, 0x20	; 32
    1ebc:	b8 f4       	brcc	.+46     	; 0x1eec <_ZN10Soundboard12initPlaylistEv+0xb2e>
    1ebe:	90 91 bc 03 	lds	r25, 0x03BC	; 0x8003bc <_ZN10Soundboard10melodyListE+0x104>
    1ec2:	91 11       	cpse	r25, r1
    1ec4:	13 c0       	rjmp	.+38     	; 0x1eec <_ZN10Soundboard12initPlaylistEv+0xb2e>
            toneList[toneNum] = toneRecord(singleTone, toneDuration);
    1ec6:	e8 2f       	mov	r30, r24
    1ec8:	f0 e0       	ldi	r31, 0x00	; 0
    1eca:	ee 0f       	add	r30, r30
    1ecc:	ff 1f       	adc	r31, r31
    1ece:	ee 0f       	add	r30, r30
    1ed0:	ff 1f       	adc	r31, r31
    1ed2:	e5 5c       	subi	r30, 0xC5	; 197
    1ed4:	fc 4f       	sbci	r31, 0xFC	; 252
    1ed6:	44 ef       	ldi	r20, 0xF4	; 244
    1ed8:	51 e0       	ldi	r21, 0x01	; 1
    1eda:	6a e5       	ldi	r22, 0x5A	; 90
    1edc:	70 e0       	ldi	r23, 0x00	; 0
    1ede:	40 83       	st	Z, r20
    1ee0:	51 83       	std	Z+1, r21	; 0x01
    1ee2:	62 83       	std	Z+2, r22	; 0x02
    1ee4:	73 83       	std	Z+3, r23	; 0x03
            toneNum++;
    1ee6:	8f 5f       	subi	r24, 0xFF	; 255
    1ee8:	80 93 bb 03 	sts	0x03BB, r24	; 0x8003bb <_ZN10Soundboard10melodyListE+0x103>
     * @param duration Duration of tone in milliseconds
     * 
     * @return False if sound is full, true otherwise.
     */
    bool addTone(tone singleTone, uint16_t toneDuration){
        if (toneNum < soundLength && finished == false){
    1eec:	80 91 bb 03 	lds	r24, 0x03BB	; 0x8003bb <_ZN10Soundboard10melodyListE+0x103>
    1ef0:	80 32       	cpi	r24, 0x20	; 32
    1ef2:	b8 f4       	brcc	.+46     	; 0x1f22 <_ZN10Soundboard12initPlaylistEv+0xb64>
    1ef4:	90 91 bc 03 	lds	r25, 0x03BC	; 0x8003bc <_ZN10Soundboard10melodyListE+0x104>
    1ef8:	91 11       	cpse	r25, r1
    1efa:	13 c0       	rjmp	.+38     	; 0x1f22 <_ZN10Soundboard12initPlaylistEv+0xb64>
            toneList[toneNum] = toneRecord(singleTone, toneDuration);
    1efc:	e8 2f       	mov	r30, r24
    1efe:	f0 e0       	ldi	r31, 0x00	; 0
    1f00:	ee 0f       	add	r30, r30
    1f02:	ff 1f       	adc	r31, r31
    1f04:	ee 0f       	add	r30, r30
    1f06:	ff 1f       	adc	r31, r31
    1f08:	e5 5c       	subi	r30, 0xC5	; 197
    1f0a:	fc 4f       	sbci	r31, 0xFC	; 252
    1f0c:	40 e2       	ldi	r20, 0x20	; 32
    1f0e:	53 e0       	ldi	r21, 0x03	; 3
    1f10:	6c e3       	ldi	r22, 0x3C	; 60
    1f12:	70 e0       	ldi	r23, 0x00	; 0
    1f14:	40 83       	st	Z, r20
    1f16:	51 83       	std	Z+1, r21	; 0x01
    1f18:	62 83       	std	Z+2, r22	; 0x02
    1f1a:	73 83       	std	Z+3, r23	; 0x03
            toneNum++;
    1f1c:	8f 5f       	subi	r24, 0xFF	; 255
    1f1e:	80 93 bb 03 	sts	0x03BB, r24	; 0x8003bb <_ZN10Soundboard10melodyListE+0x103>
     * @param duration Duration of tone in milliseconds
     * 
     * @return False if sound is full, true otherwise.
     */
    bool addTone(tone singleTone, uint16_t toneDuration){
        if (toneNum < soundLength && finished == false){
    1f22:	80 91 bb 03 	lds	r24, 0x03BB	; 0x8003bb <_ZN10Soundboard10melodyListE+0x103>
    1f26:	80 32       	cpi	r24, 0x20	; 32
    1f28:	b8 f4       	brcc	.+46     	; 0x1f58 <_ZN10Soundboard12initPlaylistEv+0xb9a>
    1f2a:	90 91 bc 03 	lds	r25, 0x03BC	; 0x8003bc <_ZN10Soundboard10melodyListE+0x104>
    1f2e:	91 11       	cpse	r25, r1
    1f30:	13 c0       	rjmp	.+38     	; 0x1f58 <_ZN10Soundboard12initPlaylistEv+0xb9a>
            toneList[toneNum] = toneRecord(singleTone, toneDuration);
    1f32:	e8 2f       	mov	r30, r24
    1f34:	f0 e0       	ldi	r31, 0x00	; 0
    1f36:	ee 0f       	add	r30, r30
    1f38:	ff 1f       	adc	r31, r31
    1f3a:	ee 0f       	add	r30, r30
    1f3c:	ff 1f       	adc	r31, r31
    1f3e:	e5 5c       	subi	r30, 0xC5	; 197
    1f40:	fc 4f       	sbci	r31, 0xFC	; 252
    1f42:	4c e4       	ldi	r20, 0x4C	; 76
    1f44:	54 e0       	ldi	r21, 0x04	; 4
    1f46:	6c e3       	ldi	r22, 0x3C	; 60
    1f48:	70 e0       	ldi	r23, 0x00	; 0
    1f4a:	40 83       	st	Z, r20
    1f4c:	51 83       	std	Z+1, r21	; 0x01
    1f4e:	62 83       	std	Z+2, r22	; 0x02
    1f50:	73 83       	std	Z+3, r23	; 0x03
            toneNum++;
    1f52:	8f 5f       	subi	r24, 0xFF	; 255
    1f54:	80 93 bb 03 	sts	0x03BB, r24	; 0x8003bb <_ZN10Soundboard10melodyListE+0x103>
     * @param duration Duration of tone in milliseconds
     * 
     * @return False if sound is full, true otherwise.
     */
    bool addTone(tone singleTone, uint16_t toneDuration){
        if (toneNum < soundLength && finished == false){
    1f58:	80 91 bb 03 	lds	r24, 0x03BB	; 0x8003bb <_ZN10Soundboard10melodyListE+0x103>
    1f5c:	80 32       	cpi	r24, 0x20	; 32
    1f5e:	b8 f4       	brcc	.+46     	; 0x1f8e <_ZN10Soundboard12initPlaylistEv+0xbd0>
    1f60:	90 91 bc 03 	lds	r25, 0x03BC	; 0x8003bc <_ZN10Soundboard10melodyListE+0x104>
    1f64:	91 11       	cpse	r25, r1
    1f66:	13 c0       	rjmp	.+38     	; 0x1f8e <_ZN10Soundboard12initPlaylistEv+0xbd0>
            toneList[toneNum] = toneRecord(singleTone, toneDuration);
    1f68:	e8 2f       	mov	r30, r24
    1f6a:	f0 e0       	ldi	r31, 0x00	; 0
    1f6c:	ee 0f       	add	r30, r30
    1f6e:	ff 1f       	adc	r31, r31
    1f70:	ee 0f       	add	r30, r30
    1f72:	ff 1f       	adc	r31, r31
    1f74:	e5 5c       	subi	r30, 0xC5	; 197
    1f76:	fc 4f       	sbci	r31, 0xFC	; 252
    1f78:	44 e8       	ldi	r20, 0x84	; 132
    1f7a:	53 e0       	ldi	r21, 0x03	; 3
    1f7c:	6c e3       	ldi	r22, 0x3C	; 60
    1f7e:	70 e0       	ldi	r23, 0x00	; 0
    1f80:	40 83       	st	Z, r20
    1f82:	51 83       	std	Z+1, r21	; 0x01
    1f84:	62 83       	std	Z+2, r22	; 0x02
    1f86:	73 83       	std	Z+3, r23	; 0x03
            toneNum++;
    1f88:	8f 5f       	subi	r24, 0xFF	; 255
    1f8a:	80 93 bb 03 	sts	0x03BB, r24	; 0x8003bb <_ZN10Soundboard10melodyListE+0x103>
     * @param duration Duration of tone in milliseconds
     * 
     * @return False if sound is full, true otherwise.
     */
    bool addTone(tone singleTone, uint16_t toneDuration){
        if (toneNum < soundLength && finished == false){
    1f8e:	80 91 bb 03 	lds	r24, 0x03BB	; 0x8003bb <_ZN10Soundboard10melodyListE+0x103>
    1f92:	80 32       	cpi	r24, 0x20	; 32
    1f94:	b8 f4       	brcc	.+46     	; 0x1fc4 <_ZN10Soundboard12initPlaylistEv+0xc06>
    1f96:	90 91 bc 03 	lds	r25, 0x03BC	; 0x8003bc <_ZN10Soundboard10melodyListE+0x104>
    1f9a:	91 11       	cpse	r25, r1
    1f9c:	13 c0       	rjmp	.+38     	; 0x1fc4 <_ZN10Soundboard12initPlaylistEv+0xc06>
            toneList[toneNum] = toneRecord(singleTone, toneDuration);
    1f9e:	e8 2f       	mov	r30, r24
    1fa0:	f0 e0       	ldi	r31, 0x00	; 0
    1fa2:	ee 0f       	add	r30, r30
    1fa4:	ff 1f       	adc	r31, r31
    1fa6:	ee 0f       	add	r30, r30
    1fa8:	ff 1f       	adc	r31, r31
    1faa:	e5 5c       	subi	r30, 0xC5	; 197
    1fac:	fc 4f       	sbci	r31, 0xFC	; 252
    1fae:	48 e7       	ldi	r20, 0x78	; 120
    1fb0:	55 e0       	ldi	r21, 0x05	; 5
    1fb2:	6c e3       	ldi	r22, 0x3C	; 60
    1fb4:	70 e0       	ldi	r23, 0x00	; 0
    1fb6:	40 83       	st	Z, r20
    1fb8:	51 83       	std	Z+1, r21	; 0x01
    1fba:	62 83       	std	Z+2, r22	; 0x02
    1fbc:	73 83       	std	Z+3, r23	; 0x03
            toneNum++;
    1fbe:	8f 5f       	subi	r24, 0xFF	; 255
    1fc0:	80 93 bb 03 	sts	0x03BB, r24	; 0x8003bb <_ZN10Soundboard10melodyListE+0x103>
     * @param duration Duration of tone in milliseconds
     * 
     * @return False if sound is full, true otherwise.
     */
    bool addTone(tone singleTone, uint16_t toneDuration){
        if (toneNum < soundLength && finished == false){
    1fc4:	80 91 3e 04 	lds	r24, 0x043E	; 0x80043e <_ZN10Soundboard10melodyListE+0x186>
    1fc8:	80 32       	cpi	r24, 0x20	; 32
    1fca:	b8 f4       	brcc	.+46     	; 0x1ffa <_ZN10Soundboard12initPlaylistEv+0xc3c>
    1fcc:	90 91 3f 04 	lds	r25, 0x043F	; 0x80043f <_ZN10Soundboard10melodyListE+0x187>
    1fd0:	91 11       	cpse	r25, r1
    1fd2:	13 c0       	rjmp	.+38     	; 0x1ffa <_ZN10Soundboard12initPlaylistEv+0xc3c>
            toneList[toneNum] = toneRecord(singleTone, toneDuration);
    1fd4:	e8 2f       	mov	r30, r24
    1fd6:	f0 e0       	ldi	r31, 0x00	; 0
    1fd8:	ee 0f       	add	r30, r30
    1fda:	ff 1f       	adc	r31, r31
    1fdc:	ee 0f       	add	r30, r30
    1fde:	ff 1f       	adc	r31, r31
    1fe0:	e2 54       	subi	r30, 0x42	; 66
    1fe2:	fc 4f       	sbci	r31, 0xFC	; 252
    1fe4:	47 e8       	ldi	r20, 0x87	; 135
    1fe6:	51 e0       	ldi	r21, 0x01	; 1
    1fe8:	62 ed       	ldi	r22, 0xD2	; 210
    1fea:	70 e0       	ldi	r23, 0x00	; 0
    1fec:	40 83       	st	Z, r20
    1fee:	51 83       	std	Z+1, r21	; 0x01
    1ff0:	62 83       	std	Z+2, r22	; 0x02
    1ff2:	73 83       	std	Z+3, r23	; 0x03
            toneNum++;
    1ff4:	8f 5f       	subi	r24, 0xFF	; 255
    1ff6:	80 93 3e 04 	sts	0x043E, r24	; 0x80043e <_ZN10Soundboard10melodyListE+0x186>
     * @param duration Duration of tone in milliseconds
     * 
     * @return False if sound is full, true otherwise.
     */
    bool addTone(tone singleTone, uint16_t toneDuration){
        if (toneNum < soundLength && finished == false){
    1ffa:	80 91 3e 04 	lds	r24, 0x043E	; 0x80043e <_ZN10Soundboard10melodyListE+0x186>
    1ffe:	80 32       	cpi	r24, 0x20	; 32
    2000:	b8 f4       	brcc	.+46     	; 0x2030 <_ZN10Soundboard12initPlaylistEv+0xc72>
    2002:	90 91 3f 04 	lds	r25, 0x043F	; 0x80043f <_ZN10Soundboard10melodyListE+0x187>
    2006:	91 11       	cpse	r25, r1
    2008:	13 c0       	rjmp	.+38     	; 0x2030 <_ZN10Soundboard12initPlaylistEv+0xc72>
            toneList[toneNum] = toneRecord(singleTone, toneDuration);
    200a:	e8 2f       	mov	r30, r24
    200c:	f0 e0       	ldi	r31, 0x00	; 0
    200e:	ee 0f       	add	r30, r30
    2010:	ff 1f       	adc	r31, r31
    2012:	ee 0f       	add	r30, r30
    2014:	ff 1f       	adc	r31, r31
    2016:	e2 54       	subi	r30, 0x42	; 66
    2018:	fc 4f       	sbci	r31, 0xFC	; 252
    201a:	40 e0       	ldi	r20, 0x00	; 0
    201c:	50 e0       	ldi	r21, 0x00	; 0
    201e:	64 e1       	ldi	r22, 0x14	; 20
    2020:	70 e0       	ldi	r23, 0x00	; 0
    2022:	40 83       	st	Z, r20
    2024:	51 83       	std	Z+1, r21	; 0x01
    2026:	62 83       	std	Z+2, r22	; 0x02
    2028:	73 83       	std	Z+3, r23	; 0x03
            toneNum++;
    202a:	8f 5f       	subi	r24, 0xFF	; 255
    202c:	80 93 3e 04 	sts	0x043E, r24	; 0x80043e <_ZN10Soundboard10melodyListE+0x186>
     * @param duration Duration of tone in milliseconds
     * 
     * @return False if sound is full, true otherwise.
     */
    bool addTone(tone singleTone, uint16_t toneDuration){
        if (toneNum < soundLength && finished == false){
    2030:	80 91 3e 04 	lds	r24, 0x043E	; 0x80043e <_ZN10Soundboard10melodyListE+0x186>
    2034:	80 32       	cpi	r24, 0x20	; 32
    2036:	b8 f4       	brcc	.+46     	; 0x2066 <_ZN10Soundboard12initPlaylistEv+0xca8>
    2038:	90 91 3f 04 	lds	r25, 0x043F	; 0x80043f <_ZN10Soundboard10melodyListE+0x187>
    203c:	91 11       	cpse	r25, r1
    203e:	13 c0       	rjmp	.+38     	; 0x2066 <_ZN10Soundboard12initPlaylistEv+0xca8>
            toneList[toneNum] = toneRecord(singleTone, toneDuration);
    2040:	e8 2f       	mov	r30, r24
    2042:	f0 e0       	ldi	r31, 0x00	; 0
    2044:	ee 0f       	add	r30, r30
    2046:	ff 1f       	adc	r31, r31
    2048:	ee 0f       	add	r30, r30
    204a:	ff 1f       	adc	r31, r31
    204c:	e2 54       	subi	r30, 0x42	; 66
    204e:	fc 4f       	sbci	r31, 0xFC	; 252
    2050:	47 e8       	ldi	r20, 0x87	; 135
    2052:	51 e0       	ldi	r21, 0x01	; 1
    2054:	62 ed       	ldi	r22, 0xD2	; 210
    2056:	70 e0       	ldi	r23, 0x00	; 0
    2058:	40 83       	st	Z, r20
    205a:	51 83       	std	Z+1, r21	; 0x01
    205c:	62 83       	std	Z+2, r22	; 0x02
    205e:	73 83       	std	Z+3, r23	; 0x03
            toneNum++;
    2060:	8f 5f       	subi	r24, 0xFF	; 255
    2062:	80 93 3e 04 	sts	0x043E, r24	; 0x80043e <_ZN10Soundboard10melodyListE+0x186>
     * @param duration Duration of tone in milliseconds
     * 
     * @return False if sound is full, true otherwise.
     */
    bool addTone(tone singleTone, uint16_t toneDuration){
        if (toneNum < soundLength && finished == false){
    2066:	80 91 3e 04 	lds	r24, 0x043E	; 0x80043e <_ZN10Soundboard10melodyListE+0x186>
    206a:	80 32       	cpi	r24, 0x20	; 32
    206c:	b8 f4       	brcc	.+46     	; 0x209c <_ZN10Soundboard12initPlaylistEv+0xcde>
    206e:	90 91 3f 04 	lds	r25, 0x043F	; 0x80043f <_ZN10Soundboard10melodyListE+0x187>
    2072:	91 11       	cpse	r25, r1
    2074:	13 c0       	rjmp	.+38     	; 0x209c <_ZN10Soundboard12initPlaylistEv+0xcde>
            toneList[toneNum] = toneRecord(singleTone, toneDuration);
    2076:	e8 2f       	mov	r30, r24
    2078:	f0 e0       	ldi	r31, 0x00	; 0
    207a:	ee 0f       	add	r30, r30
    207c:	ff 1f       	adc	r31, r31
    207e:	ee 0f       	add	r30, r30
    2080:	ff 1f       	adc	r31, r31
    2082:	e2 54       	subi	r30, 0x42	; 66
    2084:	fc 4f       	sbci	r31, 0xFC	; 252
    2086:	40 e0       	ldi	r20, 0x00	; 0
    2088:	50 e0       	ldi	r21, 0x00	; 0
    208a:	64 e1       	ldi	r22, 0x14	; 20
    208c:	70 e0       	ldi	r23, 0x00	; 0
    208e:	40 83       	st	Z, r20
    2090:	51 83       	std	Z+1, r21	; 0x01
    2092:	62 83       	std	Z+2, r22	; 0x02
    2094:	73 83       	std	Z+3, r23	; 0x03
            toneNum++;
    2096:	8f 5f       	subi	r24, 0xFF	; 255
    2098:	80 93 3e 04 	sts	0x043E, r24	; 0x80043e <_ZN10Soundboard10melodyListE+0x186>
     * @param duration Duration of tone in milliseconds
     * 
     * @return False if sound is full, true otherwise.
     */
    bool addTone(tone singleTone, uint16_t toneDuration){
        if (toneNum < soundLength && finished == false){
    209c:	80 91 3e 04 	lds	r24, 0x043E	; 0x80043e <_ZN10Soundboard10melodyListE+0x186>
    20a0:	80 32       	cpi	r24, 0x20	; 32
    20a2:	b8 f4       	brcc	.+46     	; 0x20d2 <_ZN10Soundboard12initPlaylistEv+0xd14>
    20a4:	90 91 3f 04 	lds	r25, 0x043F	; 0x80043f <_ZN10Soundboard10melodyListE+0x187>
    20a8:	91 11       	cpse	r25, r1
    20aa:	13 c0       	rjmp	.+38     	; 0x20d2 <_ZN10Soundboard12initPlaylistEv+0xd14>
            toneList[toneNum] = toneRecord(singleTone, toneDuration);
    20ac:	e8 2f       	mov	r30, r24
    20ae:	f0 e0       	ldi	r31, 0x00	; 0
    20b0:	ee 0f       	add	r30, r30
    20b2:	ff 1f       	adc	r31, r31
    20b4:	ee 0f       	add	r30, r30
    20b6:	ff 1f       	adc	r31, r31
    20b8:	e2 54       	subi	r30, 0x42	; 66
    20ba:	fc 4f       	sbci	r31, 0xFC	; 252
    20bc:	47 ec       	ldi	r20, 0xC7	; 199
    20be:	51 e0       	ldi	r21, 0x01	; 1
    20c0:	62 ed       	ldi	r22, 0xD2	; 210
    20c2:	70 e0       	ldi	r23, 0x00	; 0
    20c4:	40 83       	st	Z, r20
    20c6:	51 83       	std	Z+1, r21	; 0x01
    20c8:	62 83       	std	Z+2, r22	; 0x02
    20ca:	73 83       	std	Z+3, r23	; 0x03
            toneNum++;
    20cc:	8f 5f       	subi	r24, 0xFF	; 255
    20ce:	80 93 3e 04 	sts	0x043E, r24	; 0x80043e <_ZN10Soundboard10melodyListE+0x186>
     * @param duration Duration of tone in milliseconds
     * 
     * @return False if sound is full, true otherwise.
     */
    bool addTone(tone singleTone, uint16_t toneDuration){
        if (toneNum < soundLength && finished == false){
    20d2:	80 91 3e 04 	lds	r24, 0x043E	; 0x80043e <_ZN10Soundboard10melodyListE+0x186>
    20d6:	80 32       	cpi	r24, 0x20	; 32
    20d8:	b8 f4       	brcc	.+46     	; 0x2108 <_ZN10Soundboard12initPlaylistEv+0xd4a>
    20da:	90 91 3f 04 	lds	r25, 0x043F	; 0x80043f <_ZN10Soundboard10melodyListE+0x187>
    20de:	91 11       	cpse	r25, r1
    20e0:	13 c0       	rjmp	.+38     	; 0x2108 <_ZN10Soundboard12initPlaylistEv+0xd4a>
            toneList[toneNum] = toneRecord(singleTone, toneDuration);
    20e2:	e8 2f       	mov	r30, r24
    20e4:	f0 e0       	ldi	r31, 0x00	; 0
    20e6:	ee 0f       	add	r30, r30
    20e8:	ff 1f       	adc	r31, r31
    20ea:	ee 0f       	add	r30, r30
    20ec:	ff 1f       	adc	r31, r31
    20ee:	e2 54       	subi	r30, 0x42	; 66
    20f0:	fc 4f       	sbci	r31, 0xFC	; 252
    20f2:	40 e0       	ldi	r20, 0x00	; 0
    20f4:	50 e0       	ldi	r21, 0x00	; 0
    20f6:	64 e1       	ldi	r22, 0x14	; 20
    20f8:	70 e0       	ldi	r23, 0x00	; 0
    20fa:	40 83       	st	Z, r20
    20fc:	51 83       	std	Z+1, r21	; 0x01
    20fe:	62 83       	std	Z+2, r22	; 0x02
    2100:	73 83       	std	Z+3, r23	; 0x03
            toneNum++;
    2102:	8f 5f       	subi	r24, 0xFF	; 255
    2104:	80 93 3e 04 	sts	0x043E, r24	; 0x80043e <_ZN10Soundboard10melodyListE+0x186>
     * @param duration Duration of tone in milliseconds
     * 
     * @return False if sound is full, true otherwise.
     */
    bool addTone(tone singleTone, uint16_t toneDuration){
        if (toneNum < soundLength && finished == false){
    2108:	80 91 3e 04 	lds	r24, 0x043E	; 0x80043e <_ZN10Soundboard10melodyListE+0x186>
    210c:	80 32       	cpi	r24, 0x20	; 32
    210e:	b8 f4       	brcc	.+46     	; 0x213e <_ZN10Soundboard12initPlaylistEv+0xd80>
    2110:	90 91 3f 04 	lds	r25, 0x043F	; 0x80043f <_ZN10Soundboard10melodyListE+0x187>
    2114:	91 11       	cpse	r25, r1
    2116:	13 c0       	rjmp	.+38     	; 0x213e <_ZN10Soundboard12initPlaylistEv+0xd80>
            toneList[toneNum] = toneRecord(singleTone, toneDuration);
    2118:	e8 2f       	mov	r30, r24
    211a:	f0 e0       	ldi	r31, 0x00	; 0
    211c:	ee 0f       	add	r30, r30
    211e:	ff 1f       	adc	r31, r31
    2120:	ee 0f       	add	r30, r30
    2122:	ff 1f       	adc	r31, r31
    2124:	e2 54       	subi	r30, 0x42	; 66
    2126:	fc 4f       	sbci	r31, 0xFC	; 252
    2128:	47 e8       	ldi	r20, 0x87	; 135
    212a:	51 e0       	ldi	r21, 0x01	; 1
    212c:	6c ec       	ldi	r22, 0xCC	; 204
    212e:	71 e0       	ldi	r23, 0x01	; 1
    2130:	40 83       	st	Z, r20
    2132:	51 83       	std	Z+1, r21	; 0x01
    2134:	62 83       	std	Z+2, r22	; 0x02
    2136:	73 83       	std	Z+3, r23	; 0x03
            toneNum++;
    2138:	8f 5f       	subi	r24, 0xFF	; 255
    213a:	80 93 3e 04 	sts	0x043E, r24	; 0x80043e <_ZN10Soundboard10melodyListE+0x186>
     * @param duration Duration of tone in milliseconds
     * 
     * @return False if sound is full, true otherwise.
     */
    bool addTone(tone singleTone, uint16_t toneDuration){
        if (toneNum < soundLength && finished == false){
    213e:	80 91 3e 04 	lds	r24, 0x043E	; 0x80043e <_ZN10Soundboard10melodyListE+0x186>
    2142:	80 32       	cpi	r24, 0x20	; 32
    2144:	b8 f4       	brcc	.+46     	; 0x2174 <_ZN10Soundboard12initPlaylistEv+0xdb6>
    2146:	90 91 3f 04 	lds	r25, 0x043F	; 0x80043f <_ZN10Soundboard10melodyListE+0x187>
    214a:	91 11       	cpse	r25, r1
    214c:	13 c0       	rjmp	.+38     	; 0x2174 <_ZN10Soundboard12initPlaylistEv+0xdb6>
            toneList[toneNum] = toneRecord(singleTone, toneDuration);
    214e:	e8 2f       	mov	r30, r24
    2150:	f0 e0       	ldi	r31, 0x00	; 0
    2152:	ee 0f       	add	r30, r30
    2154:	ff 1f       	adc	r31, r31
    2156:	ee 0f       	add	r30, r30
    2158:	ff 1f       	adc	r31, r31
    215a:	e2 54       	subi	r30, 0x42	; 66
    215c:	fc 4f       	sbci	r31, 0xFC	; 252
    215e:	40 e0       	ldi	r20, 0x00	; 0
    2160:	50 e0       	ldi	r21, 0x00	; 0
    2162:	64 e1       	ldi	r22, 0x14	; 20
    2164:	70 e0       	ldi	r23, 0x00	; 0
    2166:	40 83       	st	Z, r20
    2168:	51 83       	std	Z+1, r21	; 0x01
    216a:	62 83       	std	Z+2, r22	; 0x02
    216c:	73 83       	std	Z+3, r23	; 0x03
            toneNum++;
    216e:	8f 5f       	subi	r24, 0xFF	; 255
    2170:	80 93 3e 04 	sts	0x043E, r24	; 0x80043e <_ZN10Soundboard10melodyListE+0x186>
     * @param duration Duration of tone in milliseconds
     * 
     * @return False if sound is full, true otherwise.
     */
    bool addTone(tone singleTone, uint16_t toneDuration){
        if (toneNum < soundLength && finished == false){
    2174:	80 91 3e 04 	lds	r24, 0x043E	; 0x80043e <_ZN10Soundboard10melodyListE+0x186>
    2178:	80 32       	cpi	r24, 0x20	; 32
    217a:	b8 f4       	brcc	.+46     	; 0x21aa <_ZN10Soundboard12initPlaylistEv+0xdec>
    217c:	90 91 3f 04 	lds	r25, 0x043F	; 0x80043f <_ZN10Soundboard10melodyListE+0x187>
    2180:	91 11       	cpse	r25, r1
    2182:	13 c0       	rjmp	.+38     	; 0x21aa <_ZN10Soundboard12initPlaylistEv+0xdec>
            toneList[toneNum] = toneRecord(singleTone, toneDuration);
    2184:	e8 2f       	mov	r30, r24
    2186:	f0 e0       	ldi	r31, 0x00	; 0
    2188:	ee 0f       	add	r30, r30
    218a:	ff 1f       	adc	r31, r31
    218c:	ee 0f       	add	r30, r30
    218e:	ff 1f       	adc	r31, r31
    2190:	e2 54       	subi	r30, 0x42	; 66
    2192:	fc 4f       	sbci	r31, 0xFC	; 252
    2194:	40 e0       	ldi	r20, 0x00	; 0
    2196:	50 e0       	ldi	r21, 0x00	; 0
    2198:	64 e6       	ldi	r22, 0x64	; 100
    219a:	70 e0       	ldi	r23, 0x00	; 0
    219c:	40 83       	st	Z, r20
    219e:	51 83       	std	Z+1, r21	; 0x01
    21a0:	62 83       	std	Z+2, r22	; 0x02
    21a2:	73 83       	std	Z+3, r23	; 0x03
            toneNum++;
    21a4:	8f 5f       	subi	r24, 0xFF	; 255
    21a6:	80 93 3e 04 	sts	0x043E, r24	; 0x80043e <_ZN10Soundboard10melodyListE+0x186>
     * @param duration Duration of tone in milliseconds
     * 
     * @return False if sound is full, true otherwise.
     */
    bool addTone(tone singleTone, uint16_t toneDuration){
        if (toneNum < soundLength && finished == false){
    21aa:	80 91 3e 04 	lds	r24, 0x043E	; 0x80043e <_ZN10Soundboard10melodyListE+0x186>
    21ae:	80 32       	cpi	r24, 0x20	; 32
    21b0:	b8 f4       	brcc	.+46     	; 0x21e0 <_ZN10Soundboard12initPlaylistEv+0xe22>
    21b2:	90 91 3f 04 	lds	r25, 0x043F	; 0x80043f <_ZN10Soundboard10melodyListE+0x187>
    21b6:	91 11       	cpse	r25, r1
    21b8:	13 c0       	rjmp	.+38     	; 0x21e0 <_ZN10Soundboard12initPlaylistEv+0xe22>
            toneList[toneNum] = toneRecord(singleTone, toneDuration);
    21ba:	e8 2f       	mov	r30, r24
    21bc:	f0 e0       	ldi	r31, 0x00	; 0
    21be:	ee 0f       	add	r30, r30
    21c0:	ff 1f       	adc	r31, r31
    21c2:	ee 0f       	add	r30, r30
    21c4:	ff 1f       	adc	r31, r31
    21c6:	e2 54       	subi	r30, 0x42	; 66
    21c8:	fc 4f       	sbci	r31, 0xFC	; 252
    21ca:	4d e5       	ldi	r20, 0x5D	; 93
    21cc:	51 e0       	ldi	r21, 0x01	; 1
    21ce:	62 ed       	ldi	r22, 0xD2	; 210
    21d0:	70 e0       	ldi	r23, 0x00	; 0
    21d2:	40 83       	st	Z, r20
    21d4:	51 83       	std	Z+1, r21	; 0x01
    21d6:	62 83       	std	Z+2, r22	; 0x02
    21d8:	73 83       	std	Z+3, r23	; 0x03
            toneNum++;
    21da:	8f 5f       	subi	r24, 0xFF	; 255
    21dc:	80 93 3e 04 	sts	0x043E, r24	; 0x80043e <_ZN10Soundboard10melodyListE+0x186>
     * @param duration Duration of tone in milliseconds
     * 
     * @return False if sound is full, true otherwise.
     */
    bool addTone(tone singleTone, uint16_t toneDuration){
        if (toneNum < soundLength && finished == false){
    21e0:	80 91 3e 04 	lds	r24, 0x043E	; 0x80043e <_ZN10Soundboard10melodyListE+0x186>
    21e4:	80 32       	cpi	r24, 0x20	; 32
    21e6:	b8 f4       	brcc	.+46     	; 0x2216 <_ZN10Soundboard12initPlaylistEv+0xe58>
    21e8:	90 91 3f 04 	lds	r25, 0x043F	; 0x80043f <_ZN10Soundboard10melodyListE+0x187>
    21ec:	91 11       	cpse	r25, r1
    21ee:	13 c0       	rjmp	.+38     	; 0x2216 <_ZN10Soundboard12initPlaylistEv+0xe58>
            toneList[toneNum] = toneRecord(singleTone, toneDuration);
    21f0:	e8 2f       	mov	r30, r24
    21f2:	f0 e0       	ldi	r31, 0x00	; 0
    21f4:	ee 0f       	add	r30, r30
    21f6:	ff 1f       	adc	r31, r31
    21f8:	ee 0f       	add	r30, r30
    21fa:	ff 1f       	adc	r31, r31
    21fc:	e2 54       	subi	r30, 0x42	; 66
    21fe:	fc 4f       	sbci	r31, 0xFC	; 252
    2200:	40 e0       	ldi	r20, 0x00	; 0
    2202:	50 e0       	ldi	r21, 0x00	; 0
    2204:	64 e1       	ldi	r22, 0x14	; 20
    2206:	70 e0       	ldi	r23, 0x00	; 0
    2208:	40 83       	st	Z, r20
    220a:	51 83       	std	Z+1, r21	; 0x01
    220c:	62 83       	std	Z+2, r22	; 0x02
    220e:	73 83       	std	Z+3, r23	; 0x03
            toneNum++;
    2210:	8f 5f       	subi	r24, 0xFF	; 255
    2212:	80 93 3e 04 	sts	0x043E, r24	; 0x80043e <_ZN10Soundboard10melodyListE+0x186>
     * @param duration Duration of tone in milliseconds
     * 
     * @return False if sound is full, true otherwise.
     */
    bool addTone(tone singleTone, uint16_t toneDuration){
        if (toneNum < soundLength && finished == false){
    2216:	80 91 3e 04 	lds	r24, 0x043E	; 0x80043e <_ZN10Soundboard10melodyListE+0x186>
    221a:	80 32       	cpi	r24, 0x20	; 32
    221c:	b8 f4       	brcc	.+46     	; 0x224c <_ZN10Soundboard12initPlaylistEv+0xe8e>
    221e:	90 91 3f 04 	lds	r25, 0x043F	; 0x80043f <_ZN10Soundboard10melodyListE+0x187>
    2222:	91 11       	cpse	r25, r1
    2224:	13 c0       	rjmp	.+38     	; 0x224c <_ZN10Soundboard12initPlaylistEv+0xe8e>
            toneList[toneNum] = toneRecord(singleTone, toneDuration);
    2226:	e8 2f       	mov	r30, r24
    2228:	f0 e0       	ldi	r31, 0x00	; 0
    222a:	ee 0f       	add	r30, r30
    222c:	ff 1f       	adc	r31, r31
    222e:	ee 0f       	add	r30, r30
    2230:	ff 1f       	adc	r31, r31
    2232:	e2 54       	subi	r30, 0x42	; 66
    2234:	fc 4f       	sbci	r31, 0xFC	; 252
    2236:	47 e8       	ldi	r20, 0x87	; 135
    2238:	51 e0       	ldi	r21, 0x01	; 1
    223a:	6c ec       	ldi	r22, 0xCC	; 204
    223c:	71 e0       	ldi	r23, 0x01	; 1
    223e:	40 83       	st	Z, r20
    2240:	51 83       	std	Z+1, r21	; 0x01
    2242:	62 83       	std	Z+2, r22	; 0x02
    2244:	73 83       	std	Z+3, r23	; 0x03
            toneNum++;
    2246:	8f 5f       	subi	r24, 0xFF	; 255
    2248:	80 93 3e 04 	sts	0x043E, r24	; 0x80043e <_ZN10Soundboard10melodyListE+0x186>
     * @param duration Duration of tone in milliseconds
     * 
     * @return False if sound is full, true otherwise.
     */
    bool addTone(tone singleTone, uint16_t toneDuration){
        if (toneNum < soundLength && finished == false){
    224c:	80 91 3e 04 	lds	r24, 0x043E	; 0x80043e <_ZN10Soundboard10melodyListE+0x186>
    2250:	80 32       	cpi	r24, 0x20	; 32
    2252:	b8 f4       	brcc	.+46     	; 0x2282 <_ZN10Soundboard12initPlaylistEv+0xec4>
    2254:	90 91 3f 04 	lds	r25, 0x043F	; 0x80043f <_ZN10Soundboard10melodyListE+0x187>
    2258:	91 11       	cpse	r25, r1
    225a:	13 c0       	rjmp	.+38     	; 0x2282 <_ZN10Soundboard12initPlaylistEv+0xec4>
            toneList[toneNum] = toneRecord(singleTone, toneDuration);
    225c:	e8 2f       	mov	r30, r24
    225e:	f0 e0       	ldi	r31, 0x00	; 0
    2260:	ee 0f       	add	r30, r30
    2262:	ff 1f       	adc	r31, r31
    2264:	ee 0f       	add	r30, r30
    2266:	ff 1f       	adc	r31, r31
    2268:	e2 54       	subi	r30, 0x42	; 66
    226a:	fc 4f       	sbci	r31, 0xFC	; 252
    226c:	40 e0       	ldi	r20, 0x00	; 0
    226e:	50 e0       	ldi	r21, 0x00	; 0
    2270:	64 e1       	ldi	r22, 0x14	; 20
    2272:	70 e0       	ldi	r23, 0x00	; 0
    2274:	40 83       	st	Z, r20
    2276:	51 83       	std	Z+1, r21	; 0x01
    2278:	62 83       	std	Z+2, r22	; 0x02
    227a:	73 83       	std	Z+3, r23	; 0x03
            toneNum++;
    227c:	8f 5f       	subi	r24, 0xFF	; 255
    227e:	80 93 3e 04 	sts	0x043E, r24	; 0x80043e <_ZN10Soundboard10melodyListE+0x186>
     * @param duration Duration of tone in milliseconds
     * 
     * @return False if sound is full, true otherwise.
     */
    bool addTone(tone singleTone, uint16_t toneDuration){
        if (toneNum < soundLength && finished == false){
    2282:	80 91 3e 04 	lds	r24, 0x043E	; 0x80043e <_ZN10Soundboard10melodyListE+0x186>
    2286:	80 32       	cpi	r24, 0x20	; 32
    2288:	b8 f4       	brcc	.+46     	; 0x22b8 <_ZN10Soundboard12initPlaylistEv+0xefa>
    228a:	90 91 3f 04 	lds	r25, 0x043F	; 0x80043f <_ZN10Soundboard10melodyListE+0x187>
    228e:	91 11       	cpse	r25, r1
    2290:	13 c0       	rjmp	.+38     	; 0x22b8 <_ZN10Soundboard12initPlaylistEv+0xefa>
            toneList[toneNum] = toneRecord(singleTone, toneDuration);
    2292:	e8 2f       	mov	r30, r24
    2294:	f0 e0       	ldi	r31, 0x00	; 0
    2296:	ee 0f       	add	r30, r30
    2298:	ff 1f       	adc	r31, r31
    229a:	ee 0f       	add	r30, r30
    229c:	ff 1f       	adc	r31, r31
    229e:	e2 54       	subi	r30, 0x42	; 66
    22a0:	fc 4f       	sbci	r31, 0xFC	; 252
    22a2:	4a ef       	ldi	r20, 0xFA	; 250
    22a4:	50 e0       	ldi	r21, 0x00	; 0
    22a6:	62 ed       	ldi	r22, 0xD2	; 210
    22a8:	70 e0       	ldi	r23, 0x00	; 0
    22aa:	40 83       	st	Z, r20
    22ac:	51 83       	std	Z+1, r21	; 0x01
    22ae:	62 83       	std	Z+2, r22	; 0x02
    22b0:	73 83       	std	Z+3, r23	; 0x03
            toneNum++;
    22b2:	8f 5f       	subi	r24, 0xFF	; 255
    22b4:	80 93 3e 04 	sts	0x043E, r24	; 0x80043e <_ZN10Soundboard10melodyListE+0x186>
     * @param duration Duration of tone in milliseconds
     * 
     * @return False if sound is full, true otherwise.
     */
    bool addTone(tone singleTone, uint16_t toneDuration){
        if (toneNum < soundLength && finished == false){
    22b8:	80 91 3e 04 	lds	r24, 0x043E	; 0x80043e <_ZN10Soundboard10melodyListE+0x186>
    22bc:	80 32       	cpi	r24, 0x20	; 32
    22be:	b8 f4       	brcc	.+46     	; 0x22ee <_ZN10Soundboard12initPlaylistEv+0xf30>
    22c0:	90 91 3f 04 	lds	r25, 0x043F	; 0x80043f <_ZN10Soundboard10melodyListE+0x187>
    22c4:	91 11       	cpse	r25, r1
    22c6:	13 c0       	rjmp	.+38     	; 0x22ee <_ZN10Soundboard12initPlaylistEv+0xf30>
            toneList[toneNum] = toneRecord(singleTone, toneDuration);
    22c8:	e8 2f       	mov	r30, r24
    22ca:	f0 e0       	ldi	r31, 0x00	; 0
    22cc:	ee 0f       	add	r30, r30
    22ce:	ff 1f       	adc	r31, r31
    22d0:	ee 0f       	add	r30, r30
    22d2:	ff 1f       	adc	r31, r31
    22d4:	e2 54       	subi	r30, 0x42	; 66
    22d6:	fc 4f       	sbci	r31, 0xFC	; 252
    22d8:	40 e0       	ldi	r20, 0x00	; 0
    22da:	50 e0       	ldi	r21, 0x00	; 0
    22dc:	64 e1       	ldi	r22, 0x14	; 20
    22de:	70 e0       	ldi	r23, 0x00	; 0
    22e0:	40 83       	st	Z, r20
    22e2:	51 83       	std	Z+1, r21	; 0x01
    22e4:	62 83       	std	Z+2, r22	; 0x02
    22e6:	73 83       	std	Z+3, r23	; 0x03
            toneNum++;
    22e8:	8f 5f       	subi	r24, 0xFF	; 255
    22ea:	80 93 3e 04 	sts	0x043E, r24	; 0x80043e <_ZN10Soundboard10melodyListE+0x186>
     * @param duration Duration of tone in milliseconds
     * 
     * @return False if sound is full, true otherwise.
     */
    bool addTone(tone singleTone, uint16_t toneDuration){
        if (toneNum < soundLength && finished == false){
    22ee:	80 91 3e 04 	lds	r24, 0x043E	; 0x80043e <_ZN10Soundboard10melodyListE+0x186>
    22f2:	80 32       	cpi	r24, 0x20	; 32
    22f4:	b8 f4       	brcc	.+46     	; 0x2324 <_ZN10Soundboard12initPlaylistEv+0xf66>
    22f6:	90 91 3f 04 	lds	r25, 0x043F	; 0x80043f <_ZN10Soundboard10melodyListE+0x187>
    22fa:	91 11       	cpse	r25, r1
    22fc:	13 c0       	rjmp	.+38     	; 0x2324 <_ZN10Soundboard12initPlaylistEv+0xf66>
            toneList[toneNum] = toneRecord(singleTone, toneDuration);
    22fe:	e8 2f       	mov	r30, r24
    2300:	f0 e0       	ldi	r31, 0x00	; 0
    2302:	ee 0f       	add	r30, r30
    2304:	ff 1f       	adc	r31, r31
    2306:	ee 0f       	add	r30, r30
    2308:	ff 1f       	adc	r31, r31
    230a:	e2 54       	subi	r30, 0x42	; 66
    230c:	fc 4f       	sbci	r31, 0xFC	; 252
    230e:	46 e2       	ldi	r20, 0x26	; 38
    2310:	51 e0       	ldi	r21, 0x01	; 1
    2312:	62 ed       	ldi	r22, 0xD2	; 210
    2314:	70 e0       	ldi	r23, 0x00	; 0
    2316:	40 83       	st	Z, r20
    2318:	51 83       	std	Z+1, r21	; 0x01
    231a:	62 83       	std	Z+2, r22	; 0x02
    231c:	73 83       	std	Z+3, r23	; 0x03
            toneNum++;
    231e:	8f 5f       	subi	r24, 0xFF	; 255
    2320:	80 93 3e 04 	sts	0x043E, r24	; 0x80043e <_ZN10Soundboard10melodyListE+0x186>
     * @param duration Duration of tone in milliseconds
     * 
     * @return False if sound is full, true otherwise.
     */
    bool addTone(tone singleTone, uint16_t toneDuration){
        if (toneNum < soundLength && finished == false){
    2324:	80 91 3e 04 	lds	r24, 0x043E	; 0x80043e <_ZN10Soundboard10melodyListE+0x186>
    2328:	80 32       	cpi	r24, 0x20	; 32
    232a:	b8 f4       	brcc	.+46     	; 0x235a <_ZN10Soundboard12initPlaylistEv+0xf9c>
    232c:	90 91 3f 04 	lds	r25, 0x043F	; 0x80043f <_ZN10Soundboard10melodyListE+0x187>
    2330:	91 11       	cpse	r25, r1
    2332:	13 c0       	rjmp	.+38     	; 0x235a <_ZN10Soundboard12initPlaylistEv+0xf9c>
            toneList[toneNum] = toneRecord(singleTone, toneDuration);
    2334:	e8 2f       	mov	r30, r24
    2336:	f0 e0       	ldi	r31, 0x00	; 0
    2338:	ee 0f       	add	r30, r30
    233a:	ff 1f       	adc	r31, r31
    233c:	ee 0f       	add	r30, r30
    233e:	ff 1f       	adc	r31, r31
    2340:	e2 54       	subi	r30, 0x42	; 66
    2342:	fc 4f       	sbci	r31, 0xFC	; 252
    2344:	40 e0       	ldi	r20, 0x00	; 0
    2346:	50 e0       	ldi	r21, 0x00	; 0
    2348:	64 e1       	ldi	r22, 0x14	; 20
    234a:	70 e0       	ldi	r23, 0x00	; 0
    234c:	40 83       	st	Z, r20
    234e:	51 83       	std	Z+1, r21	; 0x01
    2350:	62 83       	std	Z+2, r22	; 0x02
    2352:	73 83       	std	Z+3, r23	; 0x03
            toneNum++;
    2354:	8f 5f       	subi	r24, 0xFF	; 255
    2356:	80 93 3e 04 	sts	0x043E, r24	; 0x80043e <_ZN10Soundboard10melodyListE+0x186>
    235a:	08 95       	ret

0000235c <_GLOBAL__sub_I__ZN10Soundboard9soundListE>:
	melodyList[alorsOnDanse].addTone(dS, 210);
	melodyList[alorsOnDanse].addTone(none, 20);
	melodyList[alorsOnDanse].addTone(d, 210);
	melodyList[alorsOnDanse].addTone(none, 20);
    
    235c:	6f ef       	ldi	r22, 0xFF	; 255
    235e:	7f ef       	ldi	r23, 0xFF	; 255
    2360:	81 e0       	ldi	r24, 0x01	; 1
    2362:	90 e0       	ldi	r25, 0x00	; 0
    2364:	0e 94 a6 09 	call	0x134c	; 0x134c <_Z41__static_initialization_and_destruction_0ii>
    2368:	08 95       	ret

0000236a <_ZN17SoftwareTimerPool13initTimerPoolEh>:
bool SoftwareTimerPool::initialized = false;
uint32_t SoftwareTimerPool::lastTimestamp = 0;
uint8_t SoftwareTimerPool::timerNum = 0;

void SoftwareTimerPool::initTimerPool(uint8_t periodUs){
    if (initialized == false){
    236a:	90 91 cb 05 	lds	r25, 0x05CB	; 0x8005cb <_ZN17SoftwareTimerPool11initializedE>
    236e:	91 11       	cpse	r25, r1
    2370:	05 c0       	rjmp	.+10     	; 0x237c <_ZN17SoftwareTimerPool13initTimerPoolEh+0x12>
        hardware_timer_init(periodUs);
    2372:	0e 94 fa 05 	call	0xbf4	; 0xbf4 <hardware_timer_init>
        initialized = true;
    2376:	81 e0       	ldi	r24, 0x01	; 1
    2378:	80 93 cb 05 	sts	0x05CB, r24	; 0x8005cb <_ZN17SoftwareTimerPool11initializedE>
    237c:	08 95       	ret

0000237e <_ZN17SoftwareTimerPool12acquireTimerEv>:
    }
}

SoftwareTimer* SoftwareTimerPool::acquireTimer(){
    if (timerNum < MAX_TIMER_NUM){
    237e:	80 91 c6 05 	lds	r24, 0x05C6	; 0x8005c6 <_ZN17SoftwareTimerPool8timerNumE>
    2382:	80 31       	cpi	r24, 0x10	; 16
    2384:	60 f4       	brcc	.+24     	; 0x239e <_ZN17SoftwareTimerPool12acquireTimerEv+0x20>
        return &(timerList[timerNum++]);
    2386:	91 e0       	ldi	r25, 0x01	; 1
    2388:	98 0f       	add	r25, r24
    238a:	90 93 c6 05 	sts	0x05C6, r25	; 0x8005c6 <_ZN17SoftwareTimerPool8timerNumE>
    238e:	90 e0       	ldi	r25, 0x00	; 0
    2390:	88 0f       	add	r24, r24
    2392:	99 1f       	adc	r25, r25
    2394:	88 0f       	add	r24, r24
    2396:	99 1f       	adc	r25, r25
    2398:	84 53       	subi	r24, 0x34	; 52
    239a:	9a 4f       	sbci	r25, 0xFA	; 250
    239c:	08 95       	ret
    }
    return nullptr;
    239e:	80 e0       	ldi	r24, 0x00	; 0
    23a0:	90 e0       	ldi	r25, 0x00	; 0
}
    23a2:	08 95       	ret

000023a4 <_ZN17SoftwareTimerPool4tickEv>:


void SoftwareTimerPool::tick(){
    23a4:	8f 92       	push	r8
    23a6:	9f 92       	push	r9
    23a8:	af 92       	push	r10
    23aa:	bf 92       	push	r11
    23ac:	cf 92       	push	r12
    23ae:	df 92       	push	r13
    23b0:	ef 92       	push	r14
    23b2:	ff 92       	push	r15
    uint32_t currentTimestamp = micros();
    23b4:	0e 94 74 06 	call	0xce8	; 0xce8 <micros>
    23b8:	4b 01       	movw	r8, r22
    23ba:	5c 01       	movw	r10, r24
    uint32_t diff = currentTimestamp - lastTimestamp;
    23bc:	80 91 c7 05 	lds	r24, 0x05C7	; 0x8005c7 <_ZN17SoftwareTimerPool13lastTimestampE>
    23c0:	90 91 c8 05 	lds	r25, 0x05C8	; 0x8005c8 <_ZN17SoftwareTimerPool13lastTimestampE+0x1>
    23c4:	a0 91 c9 05 	lds	r26, 0x05C9	; 0x8005c9 <_ZN17SoftwareTimerPool13lastTimestampE+0x2>
    23c8:	b0 91 ca 05 	lds	r27, 0x05CA	; 0x8005ca <_ZN17SoftwareTimerPool13lastTimestampE+0x3>
    23cc:	75 01       	movw	r14, r10
    23ce:	64 01       	movw	r12, r8
    23d0:	c8 1a       	sub	r12, r24
    23d2:	d9 0a       	sbc	r13, r25
    23d4:	ea 0a       	sbc	r14, r26
    23d6:	fb 0a       	sbc	r15, r27
    
    for (uint8_t i = 0; i < timerNum; ++i){
    23d8:	20 e0       	ldi	r18, 0x00	; 0
    23da:	80 91 c6 05 	lds	r24, 0x05C6	; 0x8005c6 <_ZN17SoftwareTimerPool8timerNumE>
    23de:	28 17       	cp	r18, r24
    23e0:	78 f5       	brcc	.+94     	; 0x2440 <_ZN17SoftwareTimerPool4tickEv+0x9c>
        if (timerList[i].value <= diff){
    23e2:	82 2f       	mov	r24, r18
    23e4:	90 e0       	ldi	r25, 0x00	; 0
    23e6:	fc 01       	movw	r30, r24
    23e8:	ee 0f       	add	r30, r30
    23ea:	ff 1f       	adc	r31, r31
    23ec:	ee 0f       	add	r30, r30
    23ee:	ff 1f       	adc	r31, r31
    23f0:	e4 53       	subi	r30, 0x34	; 52
    23f2:	fa 4f       	sbci	r31, 0xFA	; 250
    23f4:	40 81       	ld	r20, Z
    23f6:	51 81       	ldd	r21, Z+1	; 0x01
    23f8:	62 81       	ldd	r22, Z+2	; 0x02
    23fa:	73 81       	ldd	r23, Z+3	; 0x03
    23fc:	c4 16       	cp	r12, r20
    23fe:	d5 06       	cpc	r13, r21
    2400:	e6 06       	cpc	r14, r22
    2402:	f7 06       	cpc	r15, r23
    2404:	60 f0       	brcs	.+24     	; 0x241e <_ZN17SoftwareTimerPool4tickEv+0x7a>
            timerList[i].value = 0;
    2406:	88 0f       	add	r24, r24
    2408:	99 1f       	adc	r25, r25
    240a:	88 0f       	add	r24, r24
    240c:	99 1f       	adc	r25, r25
    240e:	fc 01       	movw	r30, r24
    2410:	e4 53       	subi	r30, 0x34	; 52
    2412:	fa 4f       	sbci	r31, 0xFA	; 250
    2414:	10 82       	st	Z, r1
    2416:	11 82       	std	Z+1, r1	; 0x01
    2418:	12 82       	std	Z+2, r1	; 0x02
    241a:	13 82       	std	Z+3, r1	; 0x03
    241c:	0f c0       	rjmp	.+30     	; 0x243c <_ZN17SoftwareTimerPool4tickEv+0x98>
        }
        else {
            timerList[i].value -= diff;
    241e:	88 0f       	add	r24, r24
    2420:	99 1f       	adc	r25, r25
    2422:	88 0f       	add	r24, r24
    2424:	99 1f       	adc	r25, r25
    2426:	fc 01       	movw	r30, r24
    2428:	e4 53       	subi	r30, 0x34	; 52
    242a:	fa 4f       	sbci	r31, 0xFA	; 250
    242c:	4c 19       	sub	r20, r12
    242e:	5d 09       	sbc	r21, r13
    2430:	6e 09       	sbc	r22, r14
    2432:	7f 09       	sbc	r23, r15
    2434:	40 83       	st	Z, r20
    2436:	51 83       	std	Z+1, r21	; 0x01
    2438:	62 83       	std	Z+2, r22	; 0x02
    243a:	73 83       	std	Z+3, r23	; 0x03

void SoftwareTimerPool::tick(){
    uint32_t currentTimestamp = micros();
    uint32_t diff = currentTimestamp - lastTimestamp;
    
    for (uint8_t i = 0; i < timerNum; ++i){
    243c:	2f 5f       	subi	r18, 0xFF	; 255
    243e:	cd cf       	rjmp	.-102    	; 0x23da <_ZN17SoftwareTimerPool4tickEv+0x36>
        }
        else {
            timerList[i].value -= diff;
        }
    }
    lastTimestamp = currentTimestamp;
    2440:	80 92 c7 05 	sts	0x05C7, r8	; 0x8005c7 <_ZN17SoftwareTimerPool13lastTimestampE>
    2444:	90 92 c8 05 	sts	0x05C8, r9	; 0x8005c8 <_ZN17SoftwareTimerPool13lastTimestampE+0x1>
    2448:	a0 92 c9 05 	sts	0x05C9, r10	; 0x8005c9 <_ZN17SoftwareTimerPool13lastTimestampE+0x2>
    244c:	b0 92 ca 05 	sts	0x05CA, r11	; 0x8005ca <_ZN17SoftwareTimerPool13lastTimestampE+0x3>
}
    2450:	ff 90       	pop	r15
    2452:	ef 90       	pop	r14
    2454:	df 90       	pop	r13
    2456:	cf 90       	pop	r12
    2458:	bf 90       	pop	r11
    245a:	af 90       	pop	r10
    245c:	9f 90       	pop	r9
    245e:	8f 90       	pop	r8
    2460:	08 95       	ret

00002462 <_ZN13SoftwareTimer12startTimerUsEm>:

void SoftwareTimer::startTimerUs(uint32_t value){
    this->value = value;
    2462:	fc 01       	movw	r30, r24
    2464:	40 83       	st	Z, r20
    2466:	51 83       	std	Z+1, r21	; 0x01
    2468:	62 83       	std	Z+2, r22	; 0x02
    246a:	73 83       	std	Z+3, r23	; 0x03
    246c:	08 95       	ret

0000246e <_ZN13SoftwareTimer6isDoneEv>:
}

bool SoftwareTimer::isDone(){
    return value == 0;
    246e:	fc 01       	movw	r30, r24
    2470:	40 81       	ld	r20, Z
    2472:	51 81       	ldd	r21, Z+1	; 0x01
    2474:	62 81       	ldd	r22, Z+2	; 0x02
    2476:	73 81       	ldd	r23, Z+3	; 0x03
    2478:	81 e0       	ldi	r24, 0x01	; 1
    247a:	45 2b       	or	r20, r21
    247c:	46 2b       	or	r20, r22
    247e:	47 2b       	or	r20, r23
    2480:	09 f0       	breq	.+2      	; 0x2484 <_ZN13SoftwareTimer6isDoneEv+0x16>
    2482:	80 e0       	ldi	r24, 0x00	; 0
}
    2484:	08 95       	ret

00002486 <_ZN13SoftwareTimer4stopEv>:
void SoftwareTimer::stop(){
    value = 0;
    2486:	fc 01       	movw	r30, r24
    2488:	10 82       	st	Z, r1
    248a:	11 82       	std	Z+1, r1	; 0x01
    248c:	12 82       	std	Z+2, r1	; 0x02
    248e:	13 82       	std	Z+3, r1	; 0x03
    2490:	08 95       	ret

00002492 <_ZN10Soundboard14initSoundboardEv>:
Sound4* Soundboard::currentSound = nullptr;
Melody* Soundboard::currentMelody = nullptr;
toneRecord* Soundboard::currentRecord = nullptr;

void Soundboard::initSoundboard() {
	hardware_pwm_init();
    2492:	0e 94 17 06 	call	0xc2e	; 0xc2e <hardware_pwm_init>
	toneTimer = SoftwareTimerPool::acquireTimer();
    2496:	0e 94 bf 11 	call	0x237e	; 0x237e <_ZN17SoftwareTimerPool12acquireTimerEv>
    249a:	90 93 14 06 	sts	0x0614, r25	; 0x800614 <_ZN10Soundboard9toneTimerE+0x1>
    249e:	80 93 13 06 	sts	0x0613, r24	; 0x800613 <_ZN10Soundboard9toneTimerE>
	initPlaylist(); 
    24a2:	0e 94 df 09 	call	0x13be	; 0x13be <_ZN10Soundboard12initPlaylistEv>
    24a6:	08 95       	ret

000024a8 <_ZN10Soundboard4playEv>:
}

void Soundboard::play() {
	if (isPlaying == false) {
    24a8:	80 91 12 06 	lds	r24, 0x0612	; 0x800612 <_ZN10Soundboard9isPlayingE>
    24ac:	81 11       	cpse	r24, r1
    24ae:	0b c0       	rjmp	.+22     	; 0x24c6 <_ZN10Soundboard4playEv+0x1e>
		toneTimer->stop();
    24b0:	80 91 13 06 	lds	r24, 0x0613	; 0x800613 <_ZN10Soundboard9toneTimerE>
    24b4:	90 91 14 06 	lds	r25, 0x0614	; 0x800614 <_ZN10Soundboard9toneTimerE+0x1>
    24b8:	0e 94 43 12 	call	0x2486	; 0x2486 <_ZN13SoftwareTimer4stopEv>
		currentRecord = nullptr;
    24bc:	10 92 0d 06 	sts	0x060D, r1	; 0x80060d <_ZN10Soundboard13currentRecordE+0x1>
    24c0:	10 92 0c 06 	sts	0x060C, r1	; 0x80060c <_ZN10Soundboard13currentRecordE>
		return; 
    24c4:	08 95       	ret
	}

	// Logika pro pшehrбvбnн zvukщ/melodiн 
	if (currentSound != nullptr) {
    24c6:	a0 91 10 06 	lds	r26, 0x0610	; 0x800610 <_ZN10Soundboard12currentSoundE>
    24ca:	b0 91 11 06 	lds	r27, 0x0611	; 0x800611 <_ZN10Soundboard12currentSoundE+0x1>
    24ce:	10 97       	sbiw	r26, 0x00	; 0
    24d0:	09 f4       	brne	.+2      	; 0x24d4 <_ZN10Soundboard4playEv+0x2c>
    24d2:	45 c0       	rjmp	.+138    	; 0x255e <_ZN10Soundboard4playEv+0xb6>
		if (currentRecord == nullptr) {
    24d4:	e0 91 0c 06 	lds	r30, 0x060C	; 0x80060c <_ZN10Soundboard13currentRecordE>
    24d8:	f0 91 0d 06 	lds	r31, 0x060D	; 0x80060d <_ZN10Soundboard13currentRecordE+0x1>
    24dc:	30 97       	sbiw	r30, 0x00	; 0
    24de:	09 f0       	breq	.+2      	; 0x24e2 <_ZN10Soundboard4playEv+0x3a>
    24e0:	89 c0       	rjmp	.+274    	; 0x25f4 <_ZN10Soundboard4playEv+0x14c>
     * then increments iterator.
     * 
     * @return Current Tone
     */
    toneRecord* getCurrentToneRecord(){
        if (iterator == toneNum){
    24e2:	9a 96       	adiw	r26, 0x2a	; 42
    24e4:	8c 91       	ld	r24, X
    24e6:	9a 97       	sbiw	r26, 0x2a	; 42
    24e8:	98 96       	adiw	r26, 0x28	; 40
    24ea:	9c 91       	ld	r25, X
    24ec:	98 97       	sbiw	r26, 0x28	; 40
    24ee:	89 13       	cpse	r24, r25
    24f0:	03 c0       	rjmp	.+6      	; 0x24f8 <_ZN10Soundboard4playEv+0x50>
            iterator = 0;
    24f2:	9a 96       	adiw	r26, 0x2a	; 42
    24f4:	1c 92       	st	X, r1
    24f6:	0d c0       	rjmp	.+26     	; 0x2512 <_ZN10Soundboard4playEv+0x6a>
            return nullptr;
        }
        return &(toneList[iterator++]);
    24f8:	91 e0       	ldi	r25, 0x01	; 1
    24fa:	98 0f       	add	r25, r24
    24fc:	9a 96       	adiw	r26, 0x2a	; 42
    24fe:	9c 93       	st	X, r25
    2500:	9a 97       	sbiw	r26, 0x2a	; 42
    2502:	e8 2f       	mov	r30, r24
    2504:	f0 e0       	ldi	r31, 0x00	; 0
    2506:	ee 0f       	add	r30, r30
    2508:	ff 1f       	adc	r31, r31
    250a:	ee 0f       	add	r30, r30
    250c:	ff 1f       	adc	r31, r31
    250e:	ea 0f       	add	r30, r26
    2510:	fb 1f       	adc	r31, r27
			currentRecord = currentSound->getCurrentToneRecord();
    2512:	f0 93 0d 06 	sts	0x060D, r31	; 0x80060d <_ZN10Soundboard13currentRecordE+0x1>
    2516:	e0 93 0c 06 	sts	0x060C, r30	; 0x80060c <_ZN10Soundboard13currentRecordE>
			if (currentRecord == nullptr) {
    251a:	30 97       	sbiw	r30, 0x00	; 0
    251c:	39 f4       	brne	.+14     	; 0x252c <_ZN10Soundboard4playEv+0x84>
				currentSound = nullptr;
    251e:	10 92 11 06 	sts	0x0611, r1	; 0x800611 <_ZN10Soundboard12currentSoundE+0x1>
    2522:	10 92 10 06 	sts	0x0610, r1	; 0x800610 <_ZN10Soundboard12currentSoundE>
				isPlaying = false;
    2526:	10 92 12 06 	sts	0x0612, r1	; 0x800612 <_ZN10Soundboard9isPlayingE>
    252a:	64 c0       	rjmp	.+200    	; 0x25f4 <_ZN10Soundboard4playEv+0x14c>
				} else {
				toneTimer->startTimerUs((uint32_t)currentRecord->toneDuration * 1000);
    252c:	22 81       	ldd	r18, Z+2	; 0x02
    252e:	33 81       	ldd	r19, Z+3	; 0x03
    2530:	a8 ee       	ldi	r26, 0xE8	; 232
    2532:	b3 e0       	ldi	r27, 0x03	; 3
    2534:	0e 94 2b 13 	call	0x2656	; 0x2656 <__umulhisi3>
    2538:	ab 01       	movw	r20, r22
    253a:	bc 01       	movw	r22, r24
    253c:	80 91 13 06 	lds	r24, 0x0613	; 0x800613 <_ZN10Soundboard9toneTimerE>
    2540:	90 91 14 06 	lds	r25, 0x0614	; 0x800614 <_ZN10Soundboard9toneTimerE+0x1>
    2544:	0e 94 31 12 	call	0x2462	; 0x2462 <_ZN13SoftwareTimer12startTimerUsEm>
				hardware_pwm_set(currentRecord->singleTone);
    2548:	e0 91 0c 06 	lds	r30, 0x060C	; 0x80060c <_ZN10Soundboard13currentRecordE>
    254c:	f0 91 0d 06 	lds	r31, 0x060D	; 0x80060d <_ZN10Soundboard13currentRecordE+0x1>
    2550:	60 81       	ld	r22, Z
    2552:	71 81       	ldd	r23, Z+1	; 0x01
    2554:	80 e0       	ldi	r24, 0x00	; 0
    2556:	90 e0       	ldi	r25, 0x00	; 0
    2558:	0e 94 2d 06 	call	0xc5a	; 0xc5a <hardware_pwm_set>
    255c:	4b c0       	rjmp	.+150    	; 0x25f4 <_ZN10Soundboard4playEv+0x14c>
			}
		}
	}
	else if (currentMelody != nullptr) {
    255e:	80 91 0e 06 	lds	r24, 0x060E	; 0x80060e <_ZN10Soundboard13currentMelodyE>
    2562:	90 91 0f 06 	lds	r25, 0x060F	; 0x80060f <_ZN10Soundboard13currentMelodyE+0x1>
    2566:	00 97       	sbiw	r24, 0x00	; 0
    2568:	09 f4       	brne	.+2      	; 0x256c <_ZN10Soundboard4playEv+0xc4>
    256a:	44 c0       	rjmp	.+136    	; 0x25f4 <_ZN10Soundboard4playEv+0x14c>
		if (currentRecord == nullptr) {
    256c:	e0 91 0c 06 	lds	r30, 0x060C	; 0x80060c <_ZN10Soundboard13currentRecordE>
    2570:	f0 91 0d 06 	lds	r31, 0x060D	; 0x80060d <_ZN10Soundboard13currentRecordE+0x1>
    2574:	30 97       	sbiw	r30, 0x00	; 0
    2576:	f1 f5       	brne	.+124    	; 0x25f4 <_ZN10Soundboard4playEv+0x14c>
     * then increments iterator.
     * 
     * @return Current Tone
     */
    toneRecord* getCurrentToneRecord(){
        if (iterator == toneNum){
    2578:	dc 01       	movw	r26, r24
    257a:	ae 57       	subi	r26, 0x7E	; 126
    257c:	bf 4f       	sbci	r27, 0xFF	; 255
    257e:	2c 91       	ld	r18, X
    2580:	12 97       	sbiw	r26, 0x02	; 2
    2582:	3c 91       	ld	r19, X
    2584:	23 13       	cpse	r18, r19
    2586:	03 c0       	rjmp	.+6      	; 0x258e <_ZN10Soundboard4playEv+0xe6>
            iterator = 0;
    2588:	12 96       	adiw	r26, 0x02	; 2
    258a:	1c 92       	st	X, r1
    258c:	0e c0       	rjmp	.+28     	; 0x25aa <_ZN10Soundboard4playEv+0x102>
            return nullptr;
        }
        return &(toneList[iterator++]);
    258e:	fc 01       	movw	r30, r24
    2590:	ee 57       	subi	r30, 0x7E	; 126
    2592:	ff 4f       	sbci	r31, 0xFF	; 255
    2594:	31 e0       	ldi	r19, 0x01	; 1
    2596:	32 0f       	add	r19, r18
    2598:	30 83       	st	Z, r19
    259a:	e2 2f       	mov	r30, r18
    259c:	f0 e0       	ldi	r31, 0x00	; 0
    259e:	ee 0f       	add	r30, r30
    25a0:	ff 1f       	adc	r31, r31
    25a2:	ee 0f       	add	r30, r30
    25a4:	ff 1f       	adc	r31, r31
    25a6:	e8 0f       	add	r30, r24
    25a8:	f9 1f       	adc	r31, r25
			currentRecord = currentMelody->getCurrentToneRecord();
    25aa:	f0 93 0d 06 	sts	0x060D, r31	; 0x80060d <_ZN10Soundboard13currentRecordE+0x1>
    25ae:	e0 93 0c 06 	sts	0x060C, r30	; 0x80060c <_ZN10Soundboard13currentRecordE>
			if (currentRecord == nullptr) {
    25b2:	30 97       	sbiw	r30, 0x00	; 0
    25b4:	39 f4       	brne	.+14     	; 0x25c4 <_ZN10Soundboard4playEv+0x11c>
				currentMelody = nullptr;
    25b6:	10 92 0f 06 	sts	0x060F, r1	; 0x80060f <_ZN10Soundboard13currentMelodyE+0x1>
    25ba:	10 92 0e 06 	sts	0x060E, r1	; 0x80060e <_ZN10Soundboard13currentMelodyE>
				isPlaying = false;
    25be:	10 92 12 06 	sts	0x0612, r1	; 0x800612 <_ZN10Soundboard9isPlayingE>
    25c2:	18 c0       	rjmp	.+48     	; 0x25f4 <_ZN10Soundboard4playEv+0x14c>
				} else {
				toneTimer->startTimerUs((uint32_t)currentRecord->toneDuration * 1000);
    25c4:	22 81       	ldd	r18, Z+2	; 0x02
    25c6:	33 81       	ldd	r19, Z+3	; 0x03
    25c8:	a8 ee       	ldi	r26, 0xE8	; 232
    25ca:	b3 e0       	ldi	r27, 0x03	; 3
    25cc:	0e 94 2b 13 	call	0x2656	; 0x2656 <__umulhisi3>
    25d0:	ab 01       	movw	r20, r22
    25d2:	bc 01       	movw	r22, r24
    25d4:	80 91 13 06 	lds	r24, 0x0613	; 0x800613 <_ZN10Soundboard9toneTimerE>
    25d8:	90 91 14 06 	lds	r25, 0x0614	; 0x800614 <_ZN10Soundboard9toneTimerE+0x1>
    25dc:	0e 94 31 12 	call	0x2462	; 0x2462 <_ZN13SoftwareTimer12startTimerUsEm>
				hardware_pwm_set(currentRecord->singleTone);
    25e0:	e0 91 0c 06 	lds	r30, 0x060C	; 0x80060c <_ZN10Soundboard13currentRecordE>
    25e4:	f0 91 0d 06 	lds	r31, 0x060D	; 0x80060d <_ZN10Soundboard13currentRecordE+0x1>
    25e8:	60 81       	ld	r22, Z
    25ea:	71 81       	ldd	r23, Z+1	; 0x01
    25ec:	80 e0       	ldi	r24, 0x00	; 0
    25ee:	90 e0       	ldi	r25, 0x00	; 0
    25f0:	0e 94 2d 06 	call	0xc5a	; 0xc5a <hardware_pwm_set>
			}
		}
	}

	if (toneTimer->isDone()) {
    25f4:	80 91 13 06 	lds	r24, 0x0613	; 0x800613 <_ZN10Soundboard9toneTimerE>
    25f8:	90 91 14 06 	lds	r25, 0x0614	; 0x800614 <_ZN10Soundboard9toneTimerE+0x1>
    25fc:	0e 94 37 12 	call	0x246e	; 0x246e <_ZN13SoftwareTimer6isDoneEv>
    2600:	88 23       	and	r24, r24
    2602:	31 f0       	breq	.+12     	; 0x2610 <_ZN10Soundboard4playEv+0x168>
		currentRecord = nullptr;
    2604:	10 92 0d 06 	sts	0x060D, r1	; 0x80060d <_ZN10Soundboard13currentRecordE+0x1>
    2608:	10 92 0c 06 	sts	0x060C, r1	; 0x80060c <_ZN10Soundboard13currentRecordE>
		hardware_pwm_reset();
    260c:	0e 94 5e 06 	call	0xcbc	; 0xcbc <hardware_pwm_reset>
    2610:	08 95       	ret

00002612 <__udivmodsi4>:
    2612:	a1 e2       	ldi	r26, 0x21	; 33
    2614:	1a 2e       	mov	r1, r26
    2616:	aa 1b       	sub	r26, r26
    2618:	bb 1b       	sub	r27, r27
    261a:	fd 01       	movw	r30, r26
    261c:	0d c0       	rjmp	.+26     	; 0x2638 <__udivmodsi4_ep>

0000261e <__udivmodsi4_loop>:
    261e:	aa 1f       	adc	r26, r26
    2620:	bb 1f       	adc	r27, r27
    2622:	ee 1f       	adc	r30, r30
    2624:	ff 1f       	adc	r31, r31
    2626:	a2 17       	cp	r26, r18
    2628:	b3 07       	cpc	r27, r19
    262a:	e4 07       	cpc	r30, r20
    262c:	f5 07       	cpc	r31, r21
    262e:	20 f0       	brcs	.+8      	; 0x2638 <__udivmodsi4_ep>
    2630:	a2 1b       	sub	r26, r18
    2632:	b3 0b       	sbc	r27, r19
    2634:	e4 0b       	sbc	r30, r20
    2636:	f5 0b       	sbc	r31, r21

00002638 <__udivmodsi4_ep>:
    2638:	66 1f       	adc	r22, r22
    263a:	77 1f       	adc	r23, r23
    263c:	88 1f       	adc	r24, r24
    263e:	99 1f       	adc	r25, r25
    2640:	1a 94       	dec	r1
    2642:	69 f7       	brne	.-38     	; 0x261e <__udivmodsi4_loop>
    2644:	60 95       	com	r22
    2646:	70 95       	com	r23
    2648:	80 95       	com	r24
    264a:	90 95       	com	r25
    264c:	9b 01       	movw	r18, r22
    264e:	ac 01       	movw	r20, r24
    2650:	bd 01       	movw	r22, r26
    2652:	cf 01       	movw	r24, r30
    2654:	08 95       	ret

00002656 <__umulhisi3>:
    2656:	a2 9f       	mul	r26, r18
    2658:	b0 01       	movw	r22, r0
    265a:	b3 9f       	mul	r27, r19
    265c:	c0 01       	movw	r24, r0
    265e:	a3 9f       	mul	r26, r19
    2660:	70 0d       	add	r23, r0
    2662:	81 1d       	adc	r24, r1
    2664:	11 24       	eor	r1, r1
    2666:	91 1d       	adc	r25, r1
    2668:	b2 9f       	mul	r27, r18
    266a:	70 0d       	add	r23, r0
    266c:	81 1d       	adc	r24, r1
    266e:	11 24       	eor	r1, r1
    2670:	91 1d       	adc	r25, r1
    2672:	08 95       	ret

00002674 <__tablejump2__>:
    2674:	ee 0f       	add	r30, r30
    2676:	ff 1f       	adc	r31, r31
    2678:	05 90       	lpm	r0, Z+
    267a:	f4 91       	lpm	r31, Z
    267c:	e0 2d       	mov	r30, r0
    267e:	09 94       	ijmp

00002680 <_exit>:
    2680:	f8 94       	cli

00002682 <__stop_program>:
    2682:	ff cf       	rjmp	.-2      	; 0x2682 <__stop_program>
